(dp0
S'num_neg'
p1
I1443
sS'num_pos'
p2
I1435
sS'data'
p3
(dp4
S''
p5
I01
sS'110000'
p6
I01
sS'110001'
p7
I01
sS'1100000000000111'
p8
I01
sS'01000111110'
p9
I00
sS'0011111111111101'
p10
I01
sS'0011011000000111101111'
p11
I00
sS'1001001000'
p12
I00
sS'0000000000000111100111'
p13
I01
sS'110110100'
p14
I00
sS'110110101'
p15
I00
sS'11111001111'
p16
I01
sS'0111111111110011'
p17
I01
sS'0011111111'
p18
I01
sS'0011111110'
p19
I01
sS'10111000'
p20
I00
sS'10111001'
p21
I00
sS'01011101101'
p22
I00
sS'1111111110111111'
p23
I01
sS'00000111101'
p24
I01
sS'00000111100'
p25
I01
sS'0000011111111111000011'
p26
I01
sS'1101111000'
p27
I00
sS'0001000000000'
p28
I01
sS'0101001000'
p29
I00
sS'0011111111111111000001'
p30
I01
sS'111001111'
p31
I01
sS'111001110'
p32
I00
sS'1111110000111'
p33
I01
sS'00110011111'
p34
I01
sS'0000000011111000111'
p35
I01
sS'001'
p36
I01
sS'01011110111'
p37
I00
sS'0111111000011'
p38
I01
sS'00000100111'
p39
I01
sS'0100111111111'
p40
I01
sS'1110000011'
p41
I01
sS'0000000000100000000'
p42
I01
sS'0000000000100000001'
p43
I01
sS'0000111100000001'
p44
I01
sS'001010101'
p45
I00
sS'111111001'
p46
I01
sS'111111000'
p47
I01
sS'000110010111'
p48
I00
sS'01111000001'
p49
I01
sS'01111000000'
p50
I01
sS'0110011010100'
p51
I00
sS'011011011'
p52
I00
sS'1011101101'
p53
I00
sS'101011100'
p54
I00
sS'101011101'
p55
I00
sS'11100111111'
p56
I01
sS'11100111110'
p57
I00
sS'0000000100111111111'
p58
I01
sS'0000100000111111111'
p59
I01
sS'000011100'
p60
I01
sS'000011101'
p61
I01
sS'110111011111'
p62
I00
sS'010000000'
p63
I01
sS'010000001'
p64
I01
sS'100010'
p65
I00
sS'100011'
p66
I01
sS'11101110'
p67
I00
sS'11101111'
p68
I01
sS'1111011111'
p69
I01
sS'101011'
p70
I00
sS'111100011111'
p71
I01
sS'0011110000000'
p72
I01
sS'1011110011001'
p73
I00
sS'0100000000000'
p74
I01
sS'11011111'
p75
I01
sS'0001000000001110'
p76
I00
sS'0000110011111111'
p77
I01
sS'1011010000011101100'
p78
I00
sS'01110000000'
p79
I01
sS'01110000001'
p80
I01
sS'100'
p81
I01
sS'101'
p82
I01
sS'0001010111'
p83
I00
sS'10011111'
p84
I01
sS'0100011'
p85
I01
sS'0100010'
p86
I00
sS'0000111111100001111'
p87
I01
sS'111110011'
p88
I01
sS'1111100000000011'
p89
I01
sS'01011100'
p90
I00
sS'01011101'
p91
I00
sS'1110111010010010100111'
p92
I00
sS'01001011111'
p93
I00
sS'11101010001'
p94
I00
sS'0010011100'
p95
I00
sS'0111101101001'
p96
I00
sS'0010111011001'
p97
I00
sS'1000101011010'
p98
I00
sS'0000110011'
p99
I01
sS'0011111110001'
p100
I01
sS'0010111111011000000'
p101
I00
sS'0111111111110011111111'
p102
I01
sS'0001110111'
p103
I01
sS'1010010100101101011010'
p104
I00
sS'10001'
p105
I01
sS'10110001011'
p106
I00
sS'1110000011011100'
p107
I00
sS'1110110'
p108
I00
sS'1000000000001111'
p109
I01
sS'10000111111'
p110
I01
sS'0001110000001111111111'
p111
I01
sS'000000100'
p112
I01
sS'000000101'
p113
I01
sS'1111011010110111010'
p114
I00
sS'0111110011000'
p115
I00
sS'0011111000000001111'
p116
I01
sS'0010001111'
p117
I01
sS'0000001000000001111'
p118
I01
sS'110000011'
p119
I01
sS'0000000101111'
p120
I01
sS'0000001111111110001'
p121
I01
sS'0001100101011101'
p122
I00
sS'0110100001'
p123
I00
sS'1101110010001'
p124
I00
sS'0100101101101111011110'
p125
I00
sS'110100011000'
p126
I00
sS'011101000'
p127
I00
sS'0001011101111011'
p128
I00
sS'1100001100101111100'
p129
I00
sS'1111110000000111'
p130
I01
sS'001011101111'
p131
I00
sS'01110'
p132
I01
sS'01111'
p133
I01
sS'0100111101'
p134
I00
sS'1010110011110'
p135
I00
sS'1010000101'
p136
I00
sS'00001010'
p137
I00
sS'00001011'
p138
I01
sS'0110010'
p139
I00
sS'0110011'
p140
I01
sS'1101010000101010000'
p141
I00
sS'110010000011'
p142
I00
sS'0100011010101'
p143
I00
sS'1011111111101100111110'
p144
I00
sS'000101111'
p145
I01
sS'000101110'
p146
I00
sS'10000100'
p147
I00
sS'011100101101'
p148
I00
sS'1010001010010'
p149
I00
sS'1101000010011001010'
p150
I00
sS'1111100'
p151
I01
sS'1111101'
p152
I01
sS'010011101'
p153
I00
sS'00010001'
p154
I01
sS'00010000'
p155
I01
sS'0111111101101'
p156
I00
sS'111100100'
p157
I00
sS'0011111111111000000111'
p158
I01
sS'1111000101111101'
p159
I00
sS'0100111110011101'
p160
I00
sS'0110000101000101111111'
p161
I00
sS'11110110'
p162
I00
sS'0000011111110111111'
p163
I01
sS'0000100001'
p164
I01
sS'0000100000'
p165
I01
sS'001111110000'
p166
I01
sS'0000011111000000000000'
p167
I01
sS'011111000111'
p168
I01
sS'1101100001'
p169
I00
sS'10100100001'
p170
I00
sS'0000000111111111100000'
p171
I01
sS'10110010'
p172
I00
sS'10110011'
p173
I00
sS'1000000010010110011'
p174
I00
sS'0000000000111111111'
p175
I01
sS'0001000011001100111'
p176
I00
sS'0000100000011'
p177
I01
sS'0101111010101'
p178
I00
sS'101010111010'
p179
I00
sS'000000000100'
p180
I01
sS'111010'
p181
I00
sS'1110001100000001001100'
p182
I00
sS'0010000111011'
p183
I00
sS'110000000111'
p184
I01
sS'1101110001010'
p185
I00
sS'1011010011100111010100'
p186
I00
sS'1000011001011010001'
p187
I00
sS'000110001111'
p188
I01
sS'1001010000000100110010'
p189
I00
sS'0000111111001111'
p190
I01
sS'1011001111'
p191
I00
sS'011000010'
p192
I00
sS'011000011'
p193
I01
sS'11011011110'
p194
I00
sS'011110000000'
p195
I01
sS'1111001001000101'
p196
I00
sS'100000011011'
p197
I00
sS'1110000000011111111'
p198
I01
sS'1000011111001110010100'
p199
I00
sS'111111000011'
p200
I01
sS'10100000'
p201
I00
sS'0011000001111111'
p202
I01
sS'1100100'
p203
I00
sS'1100101'
p204
I00
sS'0000010001'
p205
I01
sS'0000010000'
p206
I01
sS'0111000001111111111'
p207
I01
sS'110011'
p208
I01
sS'110010'
p209
I00
sS'01100010'
p210
I00
sS'0000001000011'
p211
I01
sS'1111100000111'
p212
I01
sS'0000000011100'
p213
I01
sS'01110011011'
p214
I00
sS'01110011010'
p215
I00
sS'0111111111000000111'
p216
I01
sS'0000110111111'
p217
I01
sS'000001001'
p218
I01
sS'0001100000011'
p219
I01
sS'10111011'
p220
I00
sS'10111010'
p221
I00
sS'101001000'
p222
I00
sS'000010001111'
p223
I01
sS'01001011001'
p224
I00
sS'0111111111110000'
p225
I01
sS'0011010111100'
p226
I00
sS'00001101111'
p227
I01
sS'0011100110110'
p228
I00
sS'00001111001'
p229
I01
sS'00110000111'
p230
I01
sS'0000110100111010'
p231
I00
sS'00000111110'
p232
I01
sS'11100010000'
p233
I00
sS'1100100000011101011'
p234
I00
sS'01111111101'
p235
I01
sS'01111111100'
p236
I01
sS'1000011110100'
p237
I00
sS'0000001111110011111111'
p238
I01
sS'1010010010011'
p239
I00
sS'111110000101'
p240
I00
sS'0111110100010001001'
p241
I00
sS'011100001111'
p242
I01
sS'0000000111101110'
p243
I00
sS'0100001010000'
p244
I00
sS'0101111111111'
p245
I01
sS'001000011'
p246
I01
sS'001000010'
p247
I00
sS'1001100010'
p248
I00
sS'1001000111011'
p249
I00
sS'1010100111111'
p250
I00
sS'1001101001111'
p251
I00
sS'1110011110110'
p252
I00
sS'1000000101010001011'
p253
I00
sS'0111111100111111'
p254
I01
sS'111101000000'
p255
I00
sS'1110000001'
p256
I01
sS'1110000000'
p257
I01
sS'1101001011010000110'
p258
I00
sS'01111000010'
p259
I00
sS'111111011'
p260
I01
sS'11110011011'
p261
I00
sS'1000000100'
p262
I00
sS'1000000101'
p263
I00
sS'1011101110'
p264
I00
sS'110100011'
p265
I00
sS'0000000111111000001111'
p266
I01
sS'0000000000001111110001'
p267
I01
sS'01011000'
p268
I00
sS'0111000000000010'
p269
I00
sS'101010001001'
p270
I00
sS'10111110000'
p271
I00
sS'0000110000001111111'
p272
I01
sS'0100011011010'
p273
I00
sS'0111110000000001111'
p274
I01
sS'11000111'
p275
I01
sS'010011111000'
p276
I00
sS'010011111001'
p277
I00
sS'1000100101010010101001'
p278
I00
sS'0101110001010'
p279
I00
sS'1001110011010001'
p280
I00
sS'1011011100111'
p281
I00
sS'101111011100'
p282
I00
sS'0000000011001'
p283
I01
sS'0000000011000'
p284
I01
sS'0001110011111'
p285
I01
sS'001010000'
p286
I00
sS'1001111'
p287
I01
sS'1001110'
p288
I00
sS'100001'
p289
I01
sS'100000'
p290
I01
sS'0000101001010111'
p291
I00
sS'0000000000000111011'
p292
I01
sS'11101101'
p293
I00
sS'11101100'
p294
I00
sS'111010110'
p295
I00
sS'111111110000'
p296
I01
sS'1111010101010000110000'
p297
I00
sS'100000001'
p298
I01
sS'1110011111000101010'
p299
I00
sS'001001011'
p300
I00
sS'1000000111001001110'
p301
I00
sS'0100000'
p302
I01
sS'0100001'
p303
I01
sS'0000011110001'
p304
I01
sS'01110001011'
p305
I00
sS'000011001'
p306
I01
sS'000011000'
p307
I01
sS'0001101111'
p308
I01
sS'01001011101'
p309
I00
sS'01011111'
p310
I01
sS'01011110'
p311
I00
sS'1110011111011011'
p312
I00
sS'000001110111'
p313
I01
sS'0000011111111001111'
p314
I01
sS'001110000001'
p315
I01
sS'001110000000'
p316
I01
sS'0101001110001'
p317
I00
sS'0010011111'
p318
I01
sS'0111000000000'
p319
I01
sS'0111000000001'
p320
I01
sS'0000001100111111111'
p321
I01
sS'0011110010101110011101'
p322
I00
sS'1010'
p323
I00
sS'000000100001'
p324
I01
sS'000000100000'
p325
I01
sS'0000001111111111111000'
p326
I01
sS'011110001'
p327
I01
sS'0000000000000000111011'
p328
I01
sS'11011101'
p329
I00
sS'0001111111111000000'
p330
I01
sS'0000000000001'
p331
I01
sS'0110000011111111'
p332
I01
sS'0001100000000'
p333
I01
sS'011000000111'
p334
I01
sS'1000010001000101001'
p335
I00
sS'0001100001100010001'
p336
I00
sS'1010010011'
p337
I00
sS'100110101'
p338
I00
sS'000110111'
p339
I01
sS'1111110000000000111111'
p340
I01
sS'0000100001010101'
p341
I00
sS'0100100100'
p342
I00
sS'1111110000000000001'
p343
I01
sS'1111001111111'
p344
I01
sS'11111111111'
p345
I01
sS'01110100'
p346
I00
sS'0001111111110001111111'
p347
I01
sS'001110011'
p348
I01
sS'0000111111111111111001'
p349
I01
sS'00001001'
p350
I01
sS'00001000'
p351
I01
sS'1111111000011'
p352
I01
sS'0111110010110100'
p353
I00
sS'000000001'
p354
I01
sS'000000000'
p355
I01
sS'100011100000'
p356
I00
sS'1011010001001110000111'
p357
I00
sS'0001111111011111'
p358
I01
sS'1100110101111100011'
p359
I00
sS'1101011100110011110'
p360
I00
sS'0001111000111'
p361
I01
sS'0001111111000000111'
p362
I01
sS'10101010111'
p363
I00
sS'10000111'
p364
I01
sS'10000110'
p365
I00
sS'00000011000'
p366
I01
sS'0000001001'
p367
I01
sS'0000001000'
p368
I01
sS'1011101101100011100'
p369
I00
sS'011111011111'
p370
I01
sS'010011111'
p371
I01
sS'0000111110111111'
p372
I01
sS'0100110001101'
p373
I00
sS'0000100101011010001'
p374
I00
sS'0011100011111111'
p375
I01
sS'110110010111'
p376
I00
sS'0110100101101110111001'
p377
I00
sS'1001111101100110'
p378
I00
sS'0011101110110100011111'
p379
I00
sS'0000000000110111'
p380
I01
sS'0101111101011100000111'
p381
I00
sS'1111111111001111'
p382
I01
sS'10110001'
p383
I00
sS'010000011111'
p384
I01
sS'0111011000101110'
p385
I00
sS'00100100011'
p386
I00
sS'0001101111001'
p387
I00
sS'0011000000000011111'
p388
I01
sS'0000000000000001100'
p389
I01
sS'0111111110'
p390
I01
sS'0111111111'
p391
I01
sS'0000000000111111100'
p392
I01
sS'1010011011'
p393
I00
sS'0000001111110001111111'
p394
I01
sS'1111000000001'
p395
I01
sS'1111000000000'
p396
I01
sS'111100001'
p397
I01
sS'111100000'
p398
I01
sS'11110000001'
p399
I01
sS'11110000000'
p400
I01
sS'11111'
p401
I01
sS'11110'
p402
I01
sS'1111001'
p403
I01
sS'1111000'
p404
I01
sS'000111111111'
p405
I01
sS'0000110101000111110'
p406
I00
sS'101011111011'
p407
I00
sS'0001111100011'
p408
I01
sS'000101101'
p409
I00
sS'0111010001101010'
p410
I00
sS'10100101110'
p411
I00
sS'0000101001111'
p412
I00
sS'0000010100'
p413
I00
sS'0000000001000011'
p414
I01
sS'110101010'
p415
I00
sS'0000011110011111'
p416
I01
sS'1010011101001'
p417
I00
sS'011110000011'
p418
I01
sS'01000010010'
p419
I00
sS'100010110'
p420
I00
sS'0000000000111100000'
p421
I01
sS'1100101000001011110'
p422
I00
sS'00010111100'
p423
I00
sS'1111011010000001001'
p424
I00
sS'101010'
p425
I00
sS'1000000000011'
p426
I01
sS'001100011111'
p427
I01
sS'100001111'
p428
I01
sS'100001110'
p429
I00
sS'11101101110'
p430
I00
sS'000011110000'
p431
I01
sS'000011110001'
p432
I01
sS'01000000011'
p433
I01
sS'1101101111111000000'
p434
I00
sS'01000110011'
p435
I00
sS'0000000100000000000011'
p436
I01
sS'101000000'
p437
I00
sS'00111011'
p438
I01
sS'0100000010'
p439
I00
sS'0100001000110'
p440
I00
sS'1010111'
p441
I00
sS'1010110'
p442
I00
sS'0000111111110000000000'
p443
I01
sS'00'
p444
I01
sS'01'
p445
I01
sS'11011110'
p446
I00
sS'1010111100110100'
p447
I00
sS'1100000000001'
p448
I01
sS'1100000000000'
p449
I01
sS'1100110001110000100110'
p450
I00
sS'0111011001101'
p451
I00
sS'101010011'
p452
I00
sS'1100001'
p453
I01
sS'1100000'
p454
I01
sS'1000101101110110000101'
p455
I00
sS'1001100100100'
p456
I00
sS'0011111000011111'
p457
I01
sS'001000000'
p458
I01
sS'001000001'
p459
I01
sS'100100111101'
p460
I00
sS'000100011111'
p461
I01
sS'1111111110001111'
p462
I01
sS'1101100000001011'
p463
I00
sS'000001101111'
p464
I01
sS'1001100000'
p465
I00
sS'0111011011001100011001'
p466
I00
sS'0100100000'
p467
I00
sS'0111110011100000'
p468
I00
sS'110110010'
p469
I00
sS'110001000011'
p470
I00
sS'1101101000000'
p471
I00
sS'0011111110000011'
p472
I01
sS'0101111000101111101'
p473
I00
sS'00111000011'
p474
I01
sS'110001111111'
p475
I01
sS'0001000101111110010111'
p476
I00
sS'0111000000000001'
p477
I01
sS'0111001000100101000100'
p478
I00
sS'11111011101'
p479
I00
sS'1111110000000'
p480
I01
sS'0111001001101'
p481
I00
sS'0011001111111'
p482
I01
sS'1110111010001011000110'
p483
I00
sS'1011110001110111'
p484
I00
sS'011100011'
p485
I01
sS'011111'
p486
I01
sS'0001111100000000111'
p487
I01
sS'1001100'
p488
I00
sS'1001101'
p489
I00
sS'001010011'
p490
I00
sS'00100010'
p491
I00
sS'101011010'
p492
I00
sS'0000010000111'
p493
I01
sS'0001110000111'
p494
I01
sS'0000000000000111000'
p495
I01
sS'111010101'
p496
I00
sS'111111110010'
p497
I00
sS'1000111111000111'
p498
I00
sS'1000001001110'
p499
I00
sS'10010000'
p500
I00
sS'10010001'
p501
I00
sS'0100100100100001101'
p502
I00
sS'1100011111'
p503
I01
sS'01101010011'
p504
I00
sS'01100000001'
p505
I01
sS'01100000000'
p506
I01
sS'1010001010'
p507
I00
sS'0110001111'
p508
I01
sS'000011011'
p509
I01
sS'0110110110110110'
p510
I00
sS'0111100000001'
p511
I01
sS'0111100000000'
p512
I01
sS'1000101100010101000111'
p513
I00
sS'0000011110011'
p514
I01
sS'0001100000011001'
p515
I00
sS'0110011110010'
p516
I00
sS'0110010011100010011011'
p517
I00
sS'010000110'
p518
I00
sS'010000111'
p519
I01
sS'11011000'
p520
I00
sS'0101101010111010100'
p521
I00
sS'00100111100'
p522
I00
sS'0100000000111'
p523
I01
sS'00100111101'
p524
I00
sS'0011111111111111100111'
p525
I01
sS'0010101011011011010100'
p526
I00
sS'0111000001000101010'
p527
I00
sS'1100000000001111111'
p528
I01
sS'0000000000000000111000'
p529
I01
sS'1011110001100111010'
p530
I00
sS'011110011'
p531
I01
sS'0101010011001'
p532
I00
sS'11111100111'
p533
I01
sS'0001101101'
p534
I00
sS'011111011'
p535
I01
sS'1010000101101'
p536
I00
sS'0111011011011011'
p537
I00
sS'0011010110101110100011'
p538
I00
sS'00001000111'
p539
I01
sS'0000000011110011111'
p540
I01
sS'0000000000010'
p541
I01
sS'111111111'
p542
I01
sS'1110100010101110'
p543
I00
sS'100011010100'
p544
I00
sS'00010000000'
p545
I01
sS'00010000001'
p546
I01
sS'0011111110000000111111'
p547
I01
sS'11111111100'
p548
I01
sS'11111111101'
p549
I01
sS'101111111111'
p550
I01
sS'0101001110110011110101'
p551
I00
sS'1100000111'
p552
I01
sS'1100101001000'
p553
I00
sS'0100100101000010100111'
p554
I00
sS'0000000000001111011111'
p555
I01
sS'1111011111100011'
p556
I00
sS'001110000'
p557
I01
sS'001110001'
p558
I01
sS'1110000010110011100'
p559
I00
sS'1111111000000'
p560
I01
sS'11000011111'
p561
I01
sS'000000010'
p562
I01
sS'000000011'
p563
I01
sS'11010100000'
p564
I00
sS'0001111111110000111111'
p565
I01
sS'0000001111111110111'
p566
I01
sS'1111111111111111110011'
p567
I01
sS'0010110101'
p568
I00
sS'0011111111110111111'
p569
I01
sS'0001011'
p570
I01
sS'0001010'
p571
I00
sS'0110100110011'
p572
I00
sS'0110100110010'
p573
I00
sS'10111100'
p574
I00
sS'1000000'
p575
I01
sS'1111110000000000'
p576
I01
sS'000000011111'
p577
I01
sS'0011111001001101011001'
p578
I00
sS'0100000001111111'
p579
I01
sS'0000000000000111011111'
p580
I01
sS'100111111111'
p581
I01
sS'0001110000111111111'
p582
I01
sS'0101111111111111111'
p583
I01
sS'0011111111111111111110'
p584
I01
sS'1101000111100'
p585
I00
sS'001010111000'
p586
I00
sS'00001100'
p587
I01
sS'00001101'
p588
I01
sS'0010011100111100001'
p589
I00
sS'0100010000100'
p590
I00
sS'1101101001'
p591
I00
sS'1101101000'
p592
I00
sS'111110011111'
p593
I01
sS'0001100010011100100011'
p594
I00
sS'0111111101'
p595
I01
sS'0111111100'
p596
I01
sS'00010110'
p597
I00
sS'0000000000000001111'
p598
I01
sS'0000001100'
p599
I01
sS'0010000110011110001'
p600
I00
sS'1011001011010001001'
p601
I00
sS'0000000000000001100111'
p602
I01
sS'1100000001111111111111'
p603
I01
sS'00010111'
p604
I01
sS'1111000000011'
p605
I01
sS'11110000011'
p606
I01
sS'111100011'
p607
I01
sS'110111011'
p608
I00
sS'1111011'
p609
I01
sS'11100'
p610
I01
sS'0011000001111'
p611
I01
sS'1101010011100000100111'
p612
I00
sS'1101000111000000110011'
p613
I00
sS'1111100011'
p614
I01
sS'1111010'
p615
I00
sS'0101101010101100100'
p616
I00
sS'0000100111111'
p617
I01
sS'000111111100'
p618
I01
sS'111010010110'
p619
I00
sS'1001010110'
p620
I00
sS'0000010111'
p621
I01
sS'11101'
p622
I01
sS'101100010000'
p623
I00
sS'00000011110'
p624
I01
sS'10110100'
p625
I00
sS'10110101'
p626
I00
sS'101010110110'
p627
I00
sS'1000011111'
p628
I01
sS'1000011110'
p629
I00
sS'1001011001100000110001'
p630
I00
sS'0001011000111110101'
p631
I00
sS'0011000111000111111'
p632
I00
sS'110001110110'
p633
I00
sS'0000000011110000001111'
p634
I01
sS'0001011001110'
p635
I00
sS'0000011111000001'
p636
I01
sS'0010000'
p637
I01
sS'0000000011101111111'
p638
I01
sS'000000001011'
p639
I01
sS'100001100'
p640
I00
sS'100001101'
p641
I00
sS'01000000001'
p642
I01
sS'10101001'
p643
I00
sS'10101000'
p644
I00
sS'011111110111'
p645
I01
sS'1110000001000101011100'
p646
I00
sS'1010100'
p647
I00
sS'1010101'
p648
I00
sS'0001100001111111'
p649
I01
sS'0100000001'
p650
I01
sS'0100000000'
p651
I01
sS'1000000111111111111111'
p652
I01
sS'00111001'
p653
I01
sS'00111000'
p654
I01
sS'1111101110000011010110'
p655
I00
sS'101001011'
p656
I00
sS'000000010001'
p657
I01
sS'000000010000'
p658
I01
sS'01010011'
p659
I00
sS'0111100111111111'
p660
I01
sS'101010000'
p661
I00
sS'101010001'
p662
I00
sS'010000000000'
p663
I01
sS'000011100000'
p664
I01
sS'0001110111111'
p665
I01
sS'0011111000011'
p666
I01
sS'00101010'
p667
I00
sS'00010111001'
p668
I00
sS'11001100001'
p669
I00
sS'0000101111111101110001'
p670
I00
sS'1001001101101'
p671
I00
sS'1101111000100110101011'
p672
I00
sS'010101010001'
p673
I00
sS'11001111010'
p674
I00
sS'1100011'
p675
I01
sS'1010101101001101011110'
p676
I00
sS'1100000000000011'
p677
I01
sS'0101100000110011111100'
p678
I00
sS'0000000000000111100011'
p679
I01
sS'0111011111'
p680
I01
sS'00100001111'
p681
I01
sS'0000011100000'
p682
I01
sS'1100100111'
p683
I00
sS'000110'
p684
I01
sS'000111'
p685
I01
sS'011000110111'
p686
I00
sS'1010000101001110'
p687
I00
sS'0111111111110111111111'
p688
I01
sS'0001101100100101101'
p689
I00
sS'100000001111'
p690
I01
sS'00110000001'
p691
I01
sS'00110000000'
p692
I01
sS'0011110010100101110011'
p693
I00
sS'010111101111'
p694
I00
sS'1010011000110'
p695
I00
sS'1111000110000'
p696
I00
sS'0100000000000011111'
p697
I01
sS'111010001'
p698
I00
sS'0011111111111100000011'
p699
I01
sS'1111110000011'
p700
I01
sS'01111110'
p701
I01
sS'01111111'
p702
I01
sS'111001010'
p703
I00
sS'111001011'
p704
I00
sS'0000000000000010'
p705
I01
sS'111000011'
p706
I01
sS'000111001111'
p707
I01
sS'011101'
p708
I01
sS'011100'
p709
I01
sS'011100000'
p710
I01
sS'011100001'
p711
I01
sS'0000111110011111111'
p712
I01
sS'0000010000001111'
p713
I01
sS'0011100000000111'
p714
I01
sS'1010111101100101'
p715
I00
sS'1110000111'
p716
I01
sS'0001000111110'
p717
I00
sS'110100100'
p718
I00
sS'1111100111111'
p719
I01
sS'0011111110000111'
p720
I01
sS'01010000'
p721
I00
sS'1110010110111011100011'
p722
I00
sS'0111110000'
p723
I01
sS'1011000000'
p724
I00
sS'0111111111100000111'
p725
I01
sS'10010011'
p726
I00
sS'1111111111100000000011'
p727
I01
sS'0110000000111111111'
p728
I01
sS'11000000'
p729
I01
sS'11000001'
p730
I01
sS'01100000011'
p731
I01
sS'0101011010100011101'
p732
I00
sS'0000000001110001'
p733
I01
sS'0000000001110000'
p734
I01
sS'0111111110000000011'
p735
I01
sS'0111100000011'
p736
I01
sS'1010010110000'
p737
I00
sS'0111100010000011'
p738
I00
sS'1110000000110001011'
p739
I00
sS'0101010100011101'
p740
I00
sS'0000001000001111'
p741
I01
sS'11011011'
p742
I00
sS'11011010'
p743
I00
sS'11010010'
p744
I00
sS'11010011'
p745
I00
sS'0000000000000100111'
p746
I01
sS'01001101101'
p747
I00
sS'0001000110'
p748
I00
sS'1110110010000011'
p749
I00
sS'100101111'
p750
I00
sS'0000010000000001111'
p751
I01
sS'0101000110010000100011'
p752
I00
sS'0101000000110110011'
p753
I00
sS'0010001'
p754
I01
sS'011111000'
p755
I01
sS'011111001'
p756
I01
sS'001101001'
p757
I00
sS'001110011101'
p758
I00
sS'0111111100000'
p759
I01
sS'1111111011'
p760
I01
sS'001110000111'
p761
I01
sS'0001011010011011111'
p762
I00
sS'0111000000111'
p763
I01
sS'0100110110110100011010'
p764
I00
sS'0000100101001100010001'
p765
I00
sS'01100001101'
p766
I00
sS'1111101000101110000001'
p767
I00
sS'0000011001100010101'
p768
I00
sS'0'
p769
I01
sS'101110000'
p770
I00
sS'0011110110110011'
p771
I00
sS'0010001011'
p772
I00
sS'0001100000001111'
p773
I01
sS'0011110000000000001111'
p774
I01
sS'1110001010100101000'
p775
I00
sS'100010100'
p776
I00
sS'100010101'
p777
I00
sS'0000000000000110011111'
p778
I01
sS'011000000000'
p779
I01
sS'1010010101'
p780
I00
sS'0001000'
p781
I01
sS'0001001'
p782
I01
sS'00010000100'
p783
I00
sS'000110001'
p784
I01
sS'000110000'
p785
I01
sS'0101001100101110110'
p786
I00
sS'000010101110'
p787
I00
sS'11111111001'
p788
I01
sS'11111111000'
p789
I01
sS'1010001110010010010'
p790
I00
sS'000001011111'
p791
I01
sS'0011100001101001100000'
p792
I00
sS'0100110000'
p793
I00
sS'001110100'
p794
I00
sS'1010001000'
p795
I00
sS'011010111011'
p796
I00
sS'00001111'
p797
I01
sS'00001110'
p798
I01
sS'1110010101110101101'
p799
I00
sS'000011111001'
p800
I01
sS'000101011'
p801
I00
sS'0000000011111000000111'
p802
I01
sS'000100011'
p803
I01
sS'0001111000000'
p804
I01
sS'1101110001'
p805
I00
sS'010010011110'
p806
I00
sS'00000000110'
p807
I01
sS'0000001111'
p808
I01
sS'0000001110'
p809
I01
sS'0010101010'
p810
I00
sS'00101011001'
p811
I00
sS'001001111'
p812
I01
sS'111100100000'
p813
I00
sS'1111100001'
p814
I01
sS'1111100000'
p815
I01
sS'01100110110'
p816
I00
sS'110110111110'
p817
I00
sS'0011101001001'
p818
I00
sS'0011001001010101010'
p819
I00
sS'111000100'
p820
I00
sS'0001111111110001111'
p821
I01
sS'1011'
p822
I01
sS'1100011110110000101001'
p823
I00
sS'00100100'
p824
I00
sS'00100101'
p825
I00
sS'00000011100'
p826
I01
sS'00000011101'
p827
I01
sS'10110111'
p828
I00
sS'10110110'
p829
I00
sS'0111001011111000'
p830
I00
sS'11001101'
p831
I00
sS'0101100001'
p832
I00
sS'1001101010000110101000'
p833
I00
sS'0111001110010010101'
p834
I00
sS'0111111000'
p835
I01
sS'0111111001'
p836
I01
sS'0001001111110001101110'
p837
I00
sS'0000111'
p838
I01
sS'11001'
p839
I01
sS'11000'
p840
I01
sS'10101000011'
p841
I00
sS'1101010011'
p842
I00
sS'0000100000111'
p843
I01
sS'0110110110010001000'
p844
I00
sS'0101111111000100'
p845
I00
sS'0111010011110111111'
p846
I00
sS'0000101000010111001101'
p847
I00
sS'000000001001'
p848
I01
sS'000000001000'
p849
I01
sS'0101110101'
p850
I00
sS'1100111111111111111111'
p851
I01
sS'1001110101101111111100'
p852
I00
sS'1110101010'
p853
I00
sS'10011010'
p854
I00
sS'10011011'
p855
I00
sS'000010000011'
p856
I01
sS'01111010110'
p857
I00
sS'01111010111'
p858
I00
sS'000011010110'
p859
I00
sS'0011111000000'
p860
I01
sS'00010111011'
p861
I00
sS'0110011111000111000111'
p862
I00
sS'001000000000'
p863
I01
sS'11001100010'
p864
I00
sS'0000000111000000000'
p865
I01
sS'0110011000110101110'
p866
I00
sS'10011100010'
p867
I00
sS'0010101'
p868
I00
sS'0010100'
p869
I00
sS'110011000100'
p870
I00
sS'0010000111110011101'
p871
I00
sS'1110010000111'
p872
I00
sS'00011101101'
p873
I00
sS'01110011111'
p874
I01
sS'0000001000111'
p875
I01
sS'00100001101'
p876
I00
sS'1011000001010011001010'
p877
I00
sS'0000111100001111'
p878
I01
sS'00111100'
p879
I01
sS'00111101'
p880
I01
sS'1010001'
p881
I00
sS'1100000000011'
p882
I01
sS'1000011'
p883
I01
sS'1000010'
p884
I00
sS'0000011111111111100000'
p885
I01
sS'00110000011'
p886
I01
sS'01100110'
p887
I00
sS'01100111'
p888
I01
sS'101010101'
p889
I00
sS'101010100'
p890
I00
sS'000101'
p891
I01
sS'000100'
p892
I01
sS'0111011001011'
p893
I00
sS'00100101111'
p894
I00
sS'1100011010001111'
p895
I00
sS'1100100111010'
p896
I00
sS'0110011101010'
p897
I00
sS'1100111010'
p898
I00
sS'001000110'
p899
I00
sS'001000111'
p900
I01
sS'01111101'
p901
I01
sS'01111100'
p902
I01
sS'1111111000000011111'
p903
I01
sS'111000000'
p904
I01
sS'111000001'
p905
I01
sS'1110011111'
p906
I01
sS'0000100000001111111111'
p907
I01
sS'0000001011110010'
p908
I00
sS'0111011'
p909
I01
sS'0111010'
p910
I00
sS'00101101'
p911
I00
sS'0110001111111111111111'
p912
I01
sS'0000111011'
p913
I01
sS'0111110000000011'
p914
I01
sS'0000011111111111110011'
p915
I01
sS'0110001110101100011101'
p916
I00
sS'1110010100011'
p917
I00
sS'00111000100'
p918
I00
sS'0000111000000111'
p919
I01
sS'10000100011'
p920
I00
sS'1111000000100011100101'
p921
I00
sS'010001'
p922
I01
sS'1101010001111100111100'
p923
I00
sS'00101100'
p924
I00
sS'011000'
p925
I01
sS'011001'
p926
I01
sS'0100111001010001000000'
p927
I00
sS'010010111000'
p928
I00
sS'110101111'
p929
I00
sS'1100000000001111111111'
p930
I01
sS'11000011'
p931
I01
sS'11000010'
p932
I00
sS'0110110101'
p933
I00
sS'011100101'
p934
I00
sS'001111001100'
p935
I00
sS'00111101000'
p936
I00
sS'1100001101100'
p937
I00
sS'1100010'
p938
I00
sS'110001011'
p939
I00
sS'1001011'
p940
I00
sS'111010010'
p941
I00
sS'001101101'
p942
I00
sS'10110101001'
p943
I00
sS'0000000001111100111'
p944
I01
sS'0110111111'
p945
I01
sS'0111111111000000'
p946
I01
sS'11010001'
p947
I00
sS'11010000'
p948
I00
sS'10111010000'
p949
I00
sS'0001110010001111101111'
p950
I00
sS'110000101'
p951
I00
sS'1101111101011'
p952
I00
sS'01010110111'
p953
I00
sS'110010000'
p954
I00
sS'000110111111'
p955
I01
sS'10010011001'
p956
I00
sS'101011101011'
p957
I00
sS'0000011100000000111111'
p958
I01
sS'1000011100001111'
p959
I00
sS'1101100110110010'
p960
I00
sS'0011101'
p961
I01
sS'0000011111101'
p962
I01
sS'0000011111100'
p963
I01
sS'0001110000000000111'
p964
I01
sS'000110011111'
p965
I01
sS'0010001010100101'
p966
I00
sS'010010100100'
p967
I00
sS'0000000000111100011111'
p968
I01
sS'1011000110011101011'
p969
I00
sS'00101010010'
p970
I00
sS'1001101011110'
p971
I00
sS'0010100010000011111101'
p972
I00
sS'01001101000'
p973
I00
sS'1000101000111'
p974
I00
sS'10010111000'
p975
I00
sS'0010000000000011'
p976
I01
sS'0110101011110011'
p977
I00
sS'0100000000000011'
p978
I01
sS'0111011001'
p979
I00
sS'100000011100'
p980
I00
sS'101110011'
p981
I00
sS'11111100001'
p982
I01
sS'11111100000'
p983
I01
sS'101111010'
p984
I00
sS'011111101'
p985
I01
sS'011111100'
p986
I01
sS'0001100100000'
p987
I00
sS'0000000100000'
p988
I01
sS'00110010'
p989
I00
sS'0001111111101'
p990
I01
sS'0001111111100'
p991
I01
sS'000110011'
p992
I01
sS'00010000111'
p993
I01
sS'11111111011'
p994
I01
sS'1001000111'
p995
I00
sS'100011000000'
p996
I00
sS'1100000000'
p997
I01
sS'1100000001'
p998
I01
sS'0000000011111000011111'
p999
I01
sS'0100011001110001001'
p1000
I00
sS'110100111111'
p1001
I00
sS'0110111100000101'
p1002
I00
sS'0000011111110'
p1003
I01
sS'1111111001'
p1004
I01
sS'001110011111'
p1005
I01
sS'11100100111'
p1006
I00
sS'0001101'
p1007
I01
sS'0001100'
p1008
I01
sS'0110010110001'
p1009
I00
sS'100010000'
p1010
I00
sS'000100000'
p1011
I01
sS'000100001'
p1012
I01
sS'10010001011'
p1013
I00
sS'0001000000001111'
p1014
I01
sS'001100000000'
p1015
I01
sS'00000000100'
p1016
I01
sS'00000000101'
p1017
I01
sS'1101111101100010'
p1018
I00
sS'1010111010'
p1019
I00
sS'1010111011'
p1020
I00
sS'0011111100001111'
p1021
I01
sS'1000101001111111'
p1022
I00
sS'0011000101010100'
p1023
I00
sS'0000001111110000'
p1024
I01
sS'0001111110'
p1025
I01
sS'01001110'
p1026
I00
sS'01001111'
p1027
I01
sS'1111000111'
p1028
I01
sS'1110000001111111'
p1029
I01
sS'11110111'
p1030
I01
sS'0000000000110011'
p1031
I01
sS'111100000111'
p1032
I01
sS'0100110000000'
p1033
I00
sS'0000100011111'
p1034
I01
sS'0111110000011111111'
p1035
I01
sS'111011'
p1036
I01
sS'1001'
p1037
I01
sS'1000'
p1038
I01
sS'0011000111111'
p1039
I01
sS'00100111'
p1040
I01
sS'00100110'
p1041
I00
sS'1001001110011001100'
p1042
I00
sS'0000011111000000111111'
p1043
I01
sS'000011111100'
p1044
I01
sS'000011111101'
p1045
I01
sS'0101010110110111111110'
p1046
I00
sS'0111100000'
p1047
I01
sS'0111100001'
p1048
I01
sS'101100000011'
p1049
I00
sS'0111111011'
p1050
I01
sS'1101101011'
p1051
I00
sS'10000010001'
p1052
I00
sS'1000011011100110111110'
p1053
I00
sS'1000111111'
p1054
I01
sS'01010111'
p1055
I00
sS'11010'
p1056
I00
sS'11011'
p1057
I01
sS'1111111111111000000'
p1058
I01
sS'1111111111111000001'
p1059
I01
sS'1110101110011011000001'
p1060
I00
sS'000111100001'
p1061
I01
sS'00111'
p1062
I01
sS'00110'
p1063
I01
sS'1111100100'
p1064
I00
sS'111110110'
p1065
I00
sS'111110111'
p1066
I01
sS'10000000011'
p1067
I01
sS'1110000000000'
p1068
I01
sS'100101001011'
p1069
I00
sS'1101101011110'
p1070
I00
sS'0000011110000001'
p1071
I01
sS'111000100000'
p1072
I00
sS'0101100100'
p1073
I00
sS'1001101110111110001010'
p1074
I00
sS'0110010010001011110110'
p1075
I00
sS'10011001'
p1076
I00
sS'10011000'
p1077
I00
sS'11'
p1078
I01
sS'10'
p1079
I01
sS'100001011'
p1080
I00
sS'0001000000000000000111'
p1081
I01
sS'1000000000111'
p1082
I01
sS'0010110'
p1083
I00
sS'0010111'
p1084
I01
sS'000000001101'
p1085
I01
sS'000100111100'
p1086
I00
sS'000011001100'
p1087
I00
sS'1100100100100111001'
p1088
I00
sS'0100000111'
p1089
I01
sS'0000000010011111111'
p1090
I01
sS'0110001111111111111'
p1091
I01
sS'1011011'
p1092
I00
sS'1011010'
p1093
I00
sS'00001111111'
p1094
I01
sS'00001111110'
p1095
I01
sS'1101010001010'
p1096
I00
sS'1010010'
p1097
I00
sS'1010011'
p1098
I00
sS'00111111'
p1099
I01
sS'00111110'
p1100
I01
sS'1110101100111100'
p1101
I00
sS'0101100100100101100011'
p1102
I00
sS'1110110110000100'
p1103
I00
sS'01100101'
p1104
I00
sS'01100100'
p1105
I00
sS'101010110'
p1106
I00
sS'010000000111'
p1107
I01
sS'1000001'
p1108
I01
sS'1001001'
p1109
I00
sS'0010100000111'
p1110
I00
sS'1011000101111011'
p1111
I00
sS'1001000000110'
p1112
I00
sS'1101110110101001100'
p1113
I00
sS'0111111111111000001'
p1114
I01
sS'0111110011110001'
p1115
I00
sS'0011110000011111'
p1116
I01
sS'011011011001'
p1117
I00
sS'1100100110001'
p1118
I00
sS'01110111111'
p1119
I01
sS'0011100000000000011'
p1120
I01
sS'0000000000001000011111'
p1121
I01
sS'000110000111'
p1122
I01
sS'1111001111111111111'
p1123
I01
sS'1100001101111010'
p1124
I00
sS'0000011100111'
p1125
I01
sS'0100111110010110000'
p1126
I00
sS'1010001101111001111'
p1127
I00
sS'000000'
p1128
I01
sS'000001'
p1129
I01
sS'011001111011'
p1130
I00
sS'0111000'
p1131
I01
sS'0111001'
p1132
I01
sS'1011001010'
p1133
I00
sS'0011100111111111'
p1134
I01
sS'10101011110'
p1135
I00
sS'0000111001'
p1136
I01
sS'0000111000'
p1137
I01
sS'0011110011011110000'
p1138
I00
sS'010101110'
p1139
I00
sS'11110010'
p1140
I00
sS'0000000010000000000000'
p1141
I01
sS'0000001101111'
p1142
I01
sS'0011000000011111'
p1143
I01
sS'01111000'
p1144
I01
sS'01111001'
p1145
I01
sS'000111001000'
p1146
I00
sS'0011011001110110110010'
p1147
I00
sS'0110001001011111001001'
p1148
I00
sS'011011'
p1149
I01
sS'011010'
p1150
I00
sS'110101001101'
p1151
I00
sS'110111001101'
p1152
I00
sS'0000111111100'
p1153
I01
sS'011100111'
p1154
I01
sS'110001000'
p1155
I00
sS'110001001'
p1156
I00
sS'0101011011'
p1157
I00
sS'11111110010'
p1158
I00
sS'0100011111'
p1159
I01
sS'1000100101011000101010'
p1160
I00
sS'0111001111'
p1161
I01
sS'00000110111'
p1162
I01
sS'1001100100'
p1163
I00
sS'0011100010110111110001'
p1164
I00
sS'00111110001'
p1165
I01
sS'0101011111011'
p1166
I00
sS'0010011010111110111111'
p1167
I00
sS'001101110'
p1168
I00
sS'001101111'
p1169
I01
sS'0000000000000000011101'
p1170
I01
sS'11110110000'
p1171
I00
sS'001100101001'
p1172
I00
sS'1100010010'
p1173
I00
sS'1100010011'
p1174
I00
sS'0100101'
p1175
I00
sS'11000000000'
p1176
I01
sS'0000100100'
p1177
I00
sS'0000101001110010011'
p1178
I00
sS'0110011101111111111111'
p1179
I00
sS'100011110'
p1180
I00
sS'1001011111110'
p1181
I00
sS'1001011111111'
p1182
I00
sS'0000000000111000011'
p1183
I01
sS'0000001111111101111'
p1184
I01
sS'0111100000001111111111'
p1185
I01
sS'0111010010000001100'
p1186
I00
sS'1000011111111'
p1187
I01
sS'0000011111111'
p1188
I01
sS'1010010110110'
p1189
I00
sS'0110000001011110010101'
p1190
I00
sS'001001001000'
p1191
I00
sS'000100001111'
p1192
I01
sS'0100010100011001100'
p1193
I00
sS'1001101100101100000'
p1194
I00
sS'01010110'
p1195
I00
sS'0001100111'
p1196
I01
sS'0101011101'
p1197
I00
sS'111111001001'
p1198
I00
sS'1011001110001000000'
p1199
I00
sS'000001111111'
p1200
I01
sS'1111111101111'
p1201
I01
sS'1111001111111111111111'
p1202
I01
sS'0000001110000000'
p1203
I01
sS'00011000111'
p1204
I01
sS'0001000010111'
p1205
I00
sS'110010101'
p1206
I00
sS'0011110011001011111000'
p1207
I00
sS'011111110'
p1208
I01
sS'011111111'
p1209
I01
sS'100000011111'
p1210
I01
sS'100000011110'
p1211
I00
sS'11111100010'
p1212
I00
sS'11111100011'
p1213
I01
sS'1111111100'
p1214
I01
sS'1111111101'
p1215
I01
sS'1010001011011001010'
p1216
I00
sS'10000001011'
p1217
I00
sS'0000111110000111111'
p1218
I01
sS'0001111111110'
p1219
I01
sS'0001111111111'
p1220
I01
sS'0011110000000000001'
p1221
I01
sS'0100000011110000000'
p1222
I00
sS'0000011111111000111'
p1223
I01
sS'1100000011'
p1224
I01
sS'0010010101101010001'
p1225
I00
sS'011001000'
p1226
I00
sS'011001001'
p1227
I00
sS'11111001000'
p1228
I00
sS'0001110'
p1229
I01
sS'0001111'
p1230
I01
sS'0000000001110000111'
p1231
I01
sS'0110101'
p1232
I00
sS'001100000011'
p1233
I01
sS'0001101011100110'
p1234
I00
sS'101001100011'
p1235
I00
sS'0011000101001'
p1236
I00
sS'111110000'
p1237
I01
sS'111110001'
p1238
I01
sS'11110010000'
p1239
I00
sS'0000000000000111110011'
p1240
I01
sS'101001110001'
p1241
I00
sS'0000001111110011'
p1242
I01
sS'0001111101'
p1243
I01
sS'0001111100'
p1244
I01
sS'11110101'
p1245
I00
sS'11110100'
p1246
I00
sS'1111000100'
p1247
I00
sS'111001'
p1248
I01
sS'111000'
p1249
I01
sS'0110000000000111'
p1250
I01
sS'0101011101110010010'
p1251
I00
sS'0111010001011000'
p1252
I00
sS'000011111110'
p1253
I01
sS'0000000110000000111111'
p1254
I01
sS'1110001001111100'
p1255
I00
sS'0000011100000000001111'
p1256
I01
sS'1111110011110100111000'
p1257
I00
sS'00000000001'
p1258
I01
sS'0100101011101001110'
p1259
I00
sS'1000111100'
p1260
I00
sS'0000000001111000001111'
p1261
I01
sS'0000000111111110'
p1262
I01
sS'1111100111'
p1263
I01
sS'10101100101'
p1264
I00
sS'000111100011'
p1265
I01
sS'0011000111'
p1266
I01
sS'10101111001'
p1267
I00
sS'1100'
p1268
I01
sS'1101'
p1269
I01
sS'1111101101101001001011'
p1270
I00
sS'00100'
p1271
I01
sS'00101'
p1272
I01
sS'10010010'
p1273
I00
sS'0001000000111'
p1274
I01
sS'1101101'
p1275
I00
sS'1001101001'
p1276
I00
sS'0011111000111111'
p1277
I01
sS'0111011111000000'
p1278
I00
sS'000010011'
p1279
I01
sS'1111001010001'
p1280
I00
sS'010010110'
p1281
I00
sS'1110111110'
p1282
I00
sS'10001110'
p1283
I00
sS'10001111'
p1284
I01
sS'1111011001'
p1285
I00
sS'11101000'
p1286
I00
sS'10101000100'
p1287
I00
sS'0000000011110001'
p1288
I01
sS'1100000000111100101'
p1289
I00
sS'100100'
p1290
I00
sS'1101001111'
p1291
I00
sS'1101001001111101111'
p1292
I00
sS'100010010101'
p1293
I00
sS'0100000110101010101001'
p1294
I00
sS'000000001110'
p1295
I01
sS'0100000111111011'
p1296
I00
sS'0101000011'
p1297
I00
sS'0101000010'
p1298
I00
sS'001111100001'
p1299
I01
sS'0101001011'
p1300
I00
sS'0111110010110011011011'
p1301
I00
sS'1011000'
p1302
I00
sS'1011001'
p1303
I00
sS'0100110101011'
p1304
I00
sS'1000011111101001001'
p1305
I00
sS'00001111100'
p1306
I01
sS'10011100'
p1307
I00
sS'10011101'
p1308
I00
sS'0010110001100010'
p1309
I00
sS'1011001110111001001'
p1310
I00
sS'1100011011011111111101'
p1311
I00
sS'001111101001'
p1312
I00
sS'0000000011100010'
p1313
I00
sS'0011111000111'
p1314
I01
sS'1110100010100'
p1315
I00
sS'0111010010100101'
p1316
I00
sS'01111110111'
p1317
I01
sS'0000000001101111'
p1318
I01
sS'0011100000000000001'
p1319
I01
sS'1011101010001011'
p1320
I00
sS'10001000'
p1321
I00
sS'0000100000001111111'
p1322
I01
sS'0000000000000011110'
p1323
I01
sS'000001011'
p1324
I01
sS'000011'
p1325
I01
sS'000010'
p1326
I01
sS'1000101'
p1327
I00
sS'1000100'
p1328
I00
sS'01100000'
p1329
I01
sS'01100001'
p1330
I01
sS'1011000000011'
p1331
I00
sS'0111011000000010001'
p1332
I00
sS'101110011011'
p1333
I00
sS'0101100011001'
p1334
I00
sS'1000111110000110'
p1335
I00
sS'101110101'
p1336
I00
sS'1000001111'
p1337
I01
sS'1000111110110110100'
p1338
I00
sS'1111110111111111'
p1339
I01
sS'111000110'
p1340
I00
sS'111000111'
p1341
I01
sS'01111011'
p1342
I01
sS'1111100001101'
p1343
I00
sS'001111111001'
p1344
I01
sS'0111101'
p1345
I01
sS'0111100'
p1346
I01
sS'0111110101100011001'
p1347
I00
sS'11111110000'
p1348
I01
sS'1101011000'
p1349
I00
sS'00001100101'
p1350
I00
sS'1101111000101001101'
p1351
I00
sS'11011010110'
p1352
I00
sS'11011010111'
p1353
I00
sS'0000111100'
p1354
I01
sS'1110011'
p1355
I01
sS'1110010'
p1356
I00
sS'0000111001111'
p1357
I01
sS'0111000010000000111'
p1358
I00
sS'11100010001'
p1359
I00
sS'0000000000100001111'
p1360
I01
sS'11000000011'
p1361
I01
sS'100100101110'
p1362
I00
sS'1100000000000000000001'
p1363
I01
sS'1110000111100011'
p1364
I00
sS'000000111100'
p1365
I01
sS'000000111101'
p1366
I01
sS'0100110'
p1367
I00
sS'0100111'
p1368
I01
sS'111111100111'
p1369
I01
sS'0000000000001011111'
p1370
I01
sS'0000100111'
p1371
I01
sS'11010010000'
p1372
I00
sS'110101001'
p1373
I00
sS'00111101111'
p1374
I01
sS'0000111111001'
p1375
I01
sS'110001101'
p1376
I00
sS'0000000000110000001'
p1377
I01
sS'110011010000'
p1378
I00
sS'100111110'
p1379
I00
sS'101111101'
p1380
I00
sS'00011101'
p1381
I01
sS'000001111101'
p1382
I01
sS'000001111100'
p1383
I01
sS'01100100100'
p1384
I00
sS'010001111'
p1385
I01
sS'1100011100001010'
p1386
I00
sS'110010110'
p1387
I00
sS'110010111'
p1388
I00
sS'0100101100011100'
p1389
I00
sS'00110100011'
p1390
I00
sS'1101110000100'
p1391
I00
sS'0101011101110001'
p1392
I00
sS'0111101001011111'
p1393
I00
sS'1110111010001110000011'
p1394
I00
sS'1010100101110001'
p1395
I00
sS'101101111'
p1396
I00
sS'1111111110'
p1397
I01
sS'0010000010'
p1398
I00
sS'111100111111'
p1399
I01
sS'0000000001100000011'
p1400
I01
sS'0011100001111111'
p1401
I01
sS'1110100011101110111010'
p1402
I00
sS'0011111111011111'
p1403
I01
sS'1111000000111111'
p1404
I01
sS'01001100'
p1405
I00
sS'0011110000000000011'
p1406
I01
sS'11001110011'
p1407
I00
sS'1010001000110'
p1408
I00
sS'011101010011'
p1409
I00
sS'1101011'
p1410
I00
sS'1101010'
p1411
I00
sS'0001101110111'
p1412
I00
sS'1110110101000100'
p1413
I00
sS'1111111100011111'
p1414
I01
sS'0110000110'
p1415
I00
sS'0110000111'
p1416
I01
sS'01010101'
p1417
I00
sS'01010100'
p1418
I00
sS'011110001000'
p1419
I00
sS'00001001111'
p1420
I01
sS'0110101001000111'
p1421
I00
sS'11010001010'
p1422
I00
sS'1011101100110'
p1423
I00
sS'1001000011001100110101'
p1424
I00
sS'101110010000'
p1425
I00
sS'00110011100'
p1426
I00
sS'0100000001111'
p1427
I01
sS'001010111'
p1428
I00
sS'01110001111'
p1429
I01
sS'0011000000000000011'
p1430
I01
sS'1110001001101011100'
p1431
I00
sS'0101100'
p1432
I00
sS'110101101110'
p1433
I00
sS'011001100'
p1434
I00
sS'001010101011'
p1435
I00
sS'1110111110001110'
p1436
I00
sS'0001101111111111111'
p1437
I01
sS'0011111011111'
p1438
I01
sS'0111111001111'
p1439
I01
sS'0010011010110101111101'
p1440
I00
sS'0001001111'
p1441
I01
sS'1000101111000010100'
p1442
I00
sS'00000000010'
p1443
I01
sS'00000000011'
p1444
I01
sS'1101100000101'
p1445
I00
sS'011001100010'
p1446
I00
sS'011010110'
p1447
I00
sS'0000111111111000111'
p1448
I01
sS'0000100001111111111'
p1449
I01
sS'1111'
p1450
I01
sS'1110'
p1451
I01
sS'111100'
p1452
I01
sS'111101'
p1453
I01
sS'0001111000'
p1454
I01
sS'0001111001'
p1455
I01
sS'111100000000'
p1456
I01
sS'111100000001'
p1457
I01
sS'11110000'
p1458
I01
sS'1001111111'
p1459
I01
sS'1111000000'
p1460
I01
sS'1111000001'
p1461
I01
sS'01010101100'
p1462
I00
sS'000010000'
p1463
I01
sS'000010001'
p1464
I01
sS'1001011110'
p1465
I00
sS'1001011111'
p1466
I00
sS'10001101'
p1467
I00
sS'10001100'
p1468
I00
sS'01001101'
p1469
I00
sS'010010100'
p1470
I00
sS'11111010011'
p1471
I00
sS'0010011001000'
p1472
I00
sS'11101011'
p1473
I00
sS'1111111111111110111111'
p1474
I01
sS'1111010011'
p1475
I00
sS'100111'
p1476
I01
sS'11100011'
p1477
I01
sS'011010001101'
p1478
I00
sS'011010001100'
p1479
I00
sS'00001'
p1480
I01
sS'00000'
p1481
I01
sS'1101110001100010'
p1482
I00
sS'0110110101100'
p1483
I00
sS'0000111100000011111'
p1484
I01
sS'1110000000111'
p1485
I01
sS'1001000'
p1486
I00
sS'111111010'
p1487
I00
sS'1011011011011010101'
p1488
I00
sS'0111111110001111111111'
p1489
I01
sS'110011111111'
p1490
I01
sS'1111111010'
p1491
I00
sS'0111111100001'
p1492
I01
sS'0011011001'
p1493
I00
sS'0000001111111000111111'
p1494
I01
sS'0000000001000'
p1495
I01
sS'10011110'
p1496
I00
sS'1110001111110100001111'
p1497
I00
sS'1111010111011'
p1498
I00
sS'00011110'
p1499
I01
sS'00011111'
p1500
I01
sS'0000010000000000'
p1501
I01
sS'0001110100110111101'
p1502
I00
sS'1010110100'
p1503
I00
sS'0011111000000000011'
p1504
I01
sS'1110010001010'
p1505
I00
sS'1111111000001111111'
p1506
I01
sS'0000011110'
p1507
I01
sS'0000011111'
p1508
I01
sS'0001111111000011'
p1509
I01
sS'01100011'
p1510
I01
sS'010'
p1511
I01
sS'000001000'
p1512
I01
sS'0010000011'
p1513
I01
sS'1000110'
p1514
I00
sS'1000111'
p1515
I01
sS'0001011111111'
p1516
I01
sS'00001111000'
p1517
I01
sS'11110111111'
p1518
I01
sS'111011111'
p1519
I01
sS'11011001000'
p1520
I00
sS'1100001000100011'
p1521
I00
sS'101100001'
p1522
I00
sS'1000000000000011'
p1523
I01
sS'1101101101100010011'
p1524
I00
sS'0010111110'
p1525
I00
sS'0010111111'
p1526
I01
sS'0110'
p1527
I01
sS'0111'
p1528
I01
sS'1100100000011110100101'
p1529
I00
sS'010111111'
p1530
I01
sS'0011110111'
p1531
I01
sS'000110000000'
p1532
I01
sS'000110000001'
p1533
I01
sS'0111110'
p1534
I01
sS'0111111'
p1535
I01
sS'0111011101010000'
p1536
I00
sS'10000100110'
p1537
I00
sS'0000111110000001'
p1538
I01
sS'0001100000000000000'
p1539
I01
sS'10000000001'
p1540
I01
sS'1000011100110000'
p1541
I00
sS'0000111111000001'
p1542
I01
sS'0000000111000011111111'
p1543
I01
sS'0000111111'
p1544
I01
sS'0000111110'
p1545
I01
sS'0000110000011110'
p1546
I00
sS'1110000'
p1547
I01
sS'1110001'
p1548
I01
sS'0100000011111111111111'
p1549
I01
sS'01111110001'
p1550
I01
sS'0111101111111'
p1551
I01
sS'10100111'
p1552
I00
sS'1110000000000111'
p1553
I01
sS'01111110000'
p1554
I01
sS'010101000011'
p1555
I00
sS'0011001111111001101101'
p1556
I00
sS'11111011000'
p1557
I00
sS'1010000000000011000'
p1558
I00
sS'0000000000111111000011'
p1559
I01
sS'11000110'
p1560
I00
sS'001111111100'
p1561
I01
sS'001111111101'
p1562
I01
sS'0110110000'
p1563
I00
sS'0000111100011111111'
p1564
I01
sS'11100000000'
p1565
I01
sS'0111010011'
p1566
I00
sS'11100000001'
p1567
I01
sS'110001110'
p1568
I00
sS'110001111'
p1569
I01
sS'011111100010'
p1570
I00
sS'00000110001'
p1571
I01
sS'11111011001'
p1572
I00
sS'11001011100'
p1573
I00
sS'0001011111101000010'
p1574
I00
sS'00001100000'
p1575
I01
sS'1001010011110'
p1576
I00
sS'101111111'
p1577
I01
sS'1011100011101'
p1578
I00
sS'1001011110110111101000'
p1579
I00
sS'0111111000111110110'
p1580
I00
sS'00000101010'
p1581
I00
sS'1011101000110010101100'
p1582
I00
sS'011111100111'
p1583
I01
sS'0001010111000001'
p1584
I00
sS'010100110'
p1585
I00
sS'001100100011'
p1586
I00
sS'10000011001'
p1587
I00
sS'0001000000000001111111'
p1588
I01
sS'101101101'
p1589
I00
sS'1110001111'
p1590
I01
sS'1100100111110011100'
p1591
I00
sS'00011110111'
p1592
I01
sS'01010001'
p1593
I00
sS'0100111111111111111111'
p1594
I01
sS'0000001111110111111'
p1595
I01
sS'0001100000'
p1596
I01
sS'1001011111000101011000'
p1597
I00
sS'000001111001'
p1598
I01
sS'1001101011011'
p1599
I00
sS'1101000'
p1600
I00
sS'1101001'
p1601
I00
sS'0101101110010'
p1602
I00
sS'11010010011'
p1603
I00
sS'0000001110000000011111'
p1604
I01
sS'0000111100011111'
p1605
I01
sS'0100000000000111'
p1606
I01
sS'10101101'
p1607
I00
sS'0101101111111011'
p1608
I00
sS'0001100111111'
p1609
I01
sS'00011000000'
p1610
I01
sS'1100100110011111'
p1611
I00
sS'0011010001100101'
p1612
I00
sS'1101101101'
p1613
I00
sS'0001111000000111'
p1614
I01
sS'01111011111'
p1615
I01
sS'110111010011'
p1616
I00
sS'0011011001011110'
p1617
I00
sS'11111010'
p1618
I00
sS'11111011'
p1619
I01
sS'0000000101000010111'
p1620
I00
sS'1101100100010011'
p1621
I00
sS'01010011101'
p1622
I00
sS'11111000001'
p1623
I01
sS'0111010110000'
p1624
I00
sS'0000011000000000'
p1625
I01
sS'0110000011111111111111'
p1626
I01
sS'0110000000111'
p1627
I01
sS'101101110011'
p1628
I00
sS'011100000011'
p1629
I01
sS'0000000001011111'
p1630
I01
sS'1100110010001111101'
p1631
I00
sS'1010011111101'
p1632
I00
sS'0111110111111'
p1633
I01
sS'0101100111'
p1634
I00
sS'001011111111'
p1635
I01
sS'1110100100000000'
p1636
I00
sS'011001110'
p1637
I00
sS'011001111'
p1638
I01
sS'0000000100011'
p1639
I01
sS'00000110'
p1640
I01
sS'00000111'
p1641
I01
sS'110100101111'
p1642
I00
sS'11101001'
p1643
I00
sS'001110001111'
p1644
I01
sS'00010110100'
p1645
I00
sS'0000000011111001'
p1646
I01
sS'111000000011'
p1647
I01
sS'0000001110000011111'
p1648
I01
sS'1111000000000011'
p1649
I01
sS'0000001011100'
p1650
I00
sS'01001011'
p1651
I00
sS'01001010'
p1652
I00
sS'11100010110'
p1653
I00
sS'0001100000000111'
p1654
I01
sS'1111110001111111111'
p1655
I01
sS'111111'
p1656
I01
sS'111110'
p1657
I01
sS'0001111011'
p1658
I01
sS'1111110111111'
p1659
I01
sS'1100111111010'
p1660
I00
sS'01100100010'
p1661
I00
sS'0010000000000000111'
p1662
I01
sS'1001111111111111111'
p1663
I01
sS'1111000011'
p1664
I01
sS'11110011'
p1665
I01
sS'0001100001111111111'
p1666
I01
sS'11001011'
p1667
I00
sS'0110101111011'
p1668
I00
sS'0011100101100001111'
p1669
I00
sS'0000111110001111111111'
p1670
I01
sS'0011001110001101'
p1671
I00
sS'100101'
p1672
I00
sS'100001111111'
p1673
I01
sS'0010100111'
p1674
I00
sS'1111111100000011111'
p1675
I01
sS'0000000110000000011'
p1676
I01
sS'0001111111111000001111'
p1677
I01
sS'0000000000001111111100'
p1678
I01
sS'000111000001'
p1679
I01
sS'000111000000'
p1680
I01
sS'0110001000010011100'
p1681
I00
sS'1010110111001100011101'
p1682
I00
sS'0000000000001001'
p1683
I01
sS'11100001'
p1684
I01
sS'11100000'
p1685
I01
sS'00010'
p1686
I01
sS'00011'
p1687
I01
sS'0011000000'
p1688
I01
sS'10000000111'
p1689
I01
sS'11100000111'
p1690
I01
sS'1111010000110'
p1691
I00
sS'0110101110'
p1692
I00
sS'000110010001'
p1693
I00
sS'000010100'
p1694
I00
sS'10011010100'
p1695
I00
sS'0000000100000000111111'
p1696
I01
sS'0111110000011111'
p1697
I01
sS'10001001'
p1698
I00
sS'111101111001'
p1699
I00
sS'0000111100001'
p1700
I01
sS'0101110111101111011010'
p1701
I00
sS'10110011110'
p1702
I00
sS'0000000111'
p1703
I01
sS'0001100110110101100000'
p1704
I00
sS'1111100011110010'
p1705
I00
sS'0011110000111111111'
p1706
I01
sS'00011100'
p1707
I01
sS'0011011101110'
p1708
I00
sS'000101111010'
p1709
I00
sS'0011111000000000001'
p1710
I01
sS'11001110'
p1711
I00
sS'1011111111'
p1712
I01
sS'101111100'
p1713
I00
sS'0000001000000000001'
p1714
I01
sS'0000011101'
p1715
I01
sS'0000000100111111'
p1716
I01
sS'1101010001110'
p1717
I00
sS'0010000001'
p1718
I01
sS'0010000000'
p1719
I01
sS'1010011101011000011011'
p1720
I00
sS'00001111010'
p1721
I00
sS'0001000011011110110'
p1722
I00
sS'00000100011'
p1723
I01
sS'0011110001111'
p1724
I01
sS'0000000001101'
p1725
I01
sS'0000000001100'
p1726
I01
sS'0000111011101111'
p1727
I00
sS'011010110101'
p1728
I00
sS'111111111100'
p1729
I01
sS'10000101101'
p1730
I00
sS'1000100011'
p1731
I00
sS'0011001111111111'
p1732
I01
sS'000011001111'
p1733
I01
sS'0000000000001110111111'
p1734
I01
sS'000111011'
p1735
I01
sS'0111000011'
p1736
I01
sS'1111111000000001111111'
p1737
I01
sS'011111111101'
p1738
I01
sS'0100'
p1739
I01
sS'010111100'
p1740
I00
sS'010111101'
p1741
I00
sS'000110000011'
p1742
I01
sS'0000000000000011000'
p1743
I01
sS'0000000111001111111111'
p1744
I01
sS'0011110111111111'
p1745
I01
sS'1100111111111111'
p1746
I01
sS'0110000000110100'
p1747
I00
sS'00010010010'
p1748
I00
sS'000001101'
p1749
I01
sS'000001100'
p1750
I01
sS'0111001001101110010'
p1751
I00
sS'0001100000000000011'
p1752
I01
sS'0000010'
p1753
I01
sS'1001111110010101100'
p1754
I00
sS'110111000101'
p1755
I00
sS'0000000000001111111'
p1756
I01
sS'11111111'
p1757
I01
sS'1000001001'
p1758
I00
sS'111110111111'
p1759
I01
sS'0011010011000001111'
p1760
I00
sS'00001010101'
p1761
I00
sS'00010100001'
p1762
I00
sS'100010100111'
p1763
I00
sS'11011111100'
p1764
I00
sS'01110010111'
p1765
I00
sS'001001010110'
p1766
I00
sS'1010100111011100101110'
p1767
I00
sS'0001111111101100100011'
p1768
I00
sS'0011111110111111111'
p1769
I01
sS'0110010011100'
p1770
I00
sS'001111111111'
p1771
I01
sS'001111111110'
p1772
I01
sS'1010111110010001111101'
p1773
I00
sS'0100001000110101'
p1774
I00
sS'000010000111'
p1775
I01
sS'00001100011'
p1776
I01
sS'1101011111'
p1777
I00
sS'1101011110'
p1778
I00
sS'0011000101111'
p1779
I00
sS'011001010011'
p1780
I00
sS'00000110011'
p1781
I01
sS'0111110011'
p1782
I01
sS'0000110100010100100'
p1783
I00
sS'1101001010101001'
p1784
I00
sS'0111100000000111'
p1785
I01
sS'111101100'
p1786
I00
sS'1110101'
p1787
I00
sS'1110100'
p1788
I00
sS'10011'
p1789
I01
sS'10010'
p1790
I00
sS'0110011000'
p1791
I00
sS'000001100000'
p1792
I01
sS'0000000001111100000000'
p1793
I01
sS'0001111111111000011111'
p1794
I01
sS'1110011111010'
p1795
I00
sS'10001101000'
p1796
I00
sS'1110111101001'
p1797
I00
sS'0101100100111110'
p1798
I00
sS'0000000110111111'
p1799
I01
sS'01000011101'
p1800
I00
sS'0001100011'
p1801
I01
sS'01010010'
p1802
I00
sS'01101010'
p1803
I00
sS'1011101010100110100101'
p1804
I00
sS'01011010'
p1805
I00
sS'0011111111111101111111'
p1806
I01
sS'01101011'
p1807
I00
sS'000001111011'
p1808
I01
sS'1001010110001000100100'
p1809
I00
sS'1101010010100111000111'
p1810
I00
sS'0101110001'
p1811
I00
sS'10101111'
p1812
I00
sS'10101110'
p1813
I00
sS'100000011'
p1814
I01
sS'01000000111'
p1815
I01
sS'001101010110'
p1816
I00
sS'1110001100101'
p1817
I00
sS'0110100010010100'
p1818
I00
sS'00011000011'
p1819
I01
sS'0100000000101110110'
p1820
I00
sS'1111101101010010'
p1821
I00
sS'1000100100'
p1822
I00
sS'1011011110'
p1823
I00
sS'101001101'
p1824
I00
sS'101001100'
p1825
I00
sS'1111001001'
p1826
I00
sS'11111001'
p1827
I01
sS'11111000'
p1828
I01
sS'0111011111111111111'
p1829
I01
sS'1101110010101000'
p1830
I00
sS'1100111001'
p1831
I00
sS'1100111000'
p1832
I00
sS'0000111111110001'
p1833
I01
sS'1011110001010011'
p1834
I00
sS'001111011111'
p1835
I01
sS'00101111000'
p1836
I00
sS'0010010101000001'
p1837
I00
sS'0010000000000011111'
p1838
I01
sS'11001110101'
p1839
I00
sS'1101100'
p1840
I00
sS'0011101011001011'
p1841
I00
sS'1010111110001'
p1842
I00
sS'1111111111111111101'
p1843
I01
sS'0110000000'
p1844
I01
sS'0110000001'
p1845
I01
sS'001011011101'
p1846
I00
sS'00000101'
p1847
I01
sS'00000100'
p1848
I01
sS'0001011011'
p1849
I00
sS'1111111001111'
p1850
I01
sS'011010010000'
p1851
I00
sS'1011111001111'
p1852
I00
sS'010100100'
p1853
I00
sS'0000001100000000'
p1854
I01
sS'01010011001'
p1855
I00
sS'110111111'
p1856
I01
sS'11111000100'
p1857
I00
sS'111000000000'
p1858
I01
sS'1010101001'
p1859
I00
sS'0011111100000001111'
p1860
I01
sS'0000101000011101100000'
p1861
I00
sS'01110000101'
p1862
I00
sS'0110000000000011'
p1863
I01
sS'0000001111110'
p1864
I01
sS'1010111001010'
p1865
I00
sS'11001001'
p1866
I00
sS'11001000'
p1867
I00
sS'1100100100'
p1868
I00
sS'010010'
p1869
I00
sS'010011'
p1870
I01
sS'0010100101'
p1871
I00
sS'0001111100000011'
p1872
I01
sS'0101110001111110'
p1873
I00
sS'0000011111111110001111'
p1874
I01
sS'0001111111000001111'
p1875
I01
sS'0000000011111101'
p1876
I01
sS'0101111110000010100100'
p1877
I00
sS'0001111110011111'
p1878
I01
sS'0001111100011111111111'
p1879
I01
sS'0011000011000'
p1880
I00
sS'001011111'
p1881
I01
sS'0011111000000000000000'
p1882
I01
sS'00010001111'
p1883
I01
sS'1100011011111100'
p1884
I00
sS'0000000000111111100000'
p1885
I01
sS'1110100010100001'
p1886
I00
sS'1110011010101'
p1887
I00
sS'001111111'
p1888
I01
sS'001111110'
p1889
I01
sS'0011000011'
p1890
I01
sS'110101011100'
p1891
I00
sS'101100000'
p1892
I00
sS'0011110000000111'
p1893
I01
sS'0001111101111'
p1894
I01
sS'0000000001111000011111'
p1895
I01
sS'001000000111'
p1896
I01
sS'000010111'
p1897
I01
sS'1100000011111111111111'
p1898
I01
sS'0110101100011101001'
p1899
I00
sS'10001011'
p1900
I00
sS'10001010'
p1901
I00
sS'00100001'
p1902
I01
sS'0000000101'
p1903
I01
sS'0000000001111111111111'
p1904
I01
sS'1101001011'
p1905
I00
sS'10111111111'
p1906
I01
sS'110100010000'
p1907
I00
sS'0011011101000011110'
p1908
I00
sS'11100100'
p1909
I00
sS'1000010100'
p1910
I00
sS'10111100100'
p1911
I00
sS'1000000001111'
p1912
I01
sS'101001111'
p1913
I00
sS'0000000000000000000'
p1914
I01
sS'0000001111110001111'
p1915
I01
sS'0011111'
p1916
I01
sS'0011110'
p1917
I01
sS'00101110'
p1918
I00
sS'00101111'
p1919
I01
sS'0011100000011'
p1920
I01
sS'000010111001'
p1921
I00
sS'0000000111111000001'
p1922
I01
sS'0100111000001100110101'
p1923
I00
sS'00000100000'
p1924
I01
sS'0000000001111'
p1925
I01
sS'0001100001111'
p1926
I01
sS'111111111111'
p1927
I01
sS'111111111110'
p1928
I01
sS'0011000000001'
p1929
I01
sS'0011000000000'
p1930
I01
sS'0001000011'
p1931
I01
sS'00011000'
p1932
I01
sS'00011001'
p1933
I01
sS'100001010110'
p1934
I00
sS'0000000000110000000011'
p1935
I01
sS'000111000'
p1936
I01
sS'000111001'
p1937
I01
sS'1001111110110'
p1938
I00
sS'1111110111'
p1939
I01
sS'0000000110000111'
p1940
I01
sS'1111101110000101110110'
p1941
I00
sS'110011001110'
p1942
I00
sS'0000000111111111100'
p1943
I01
sS'1000010001'
p1944
I00
sS'0000011000'
p1945
I01
sS'0000011001'
p1946
I01
sS'0000011100111111'
p1947
I01
sS'0011111100011101'
p1948
I00
sS'11101110000'
p1949
I00
sS'0010000101'
p1950
I00
sS'000001110'
p1951
I01
sS'000001111'
p1952
I01
sS'11010100'
p1953
I00
sS'11010101'
p1954
I00
sS'01011011'
p1955
I00
sS'011000100001'
p1956
I00
sS'0000'
p1957
I01
sS'0001'
p1958
I01
sS'1010011111001100101'
p1959
I00
sS'1000000011'
p1960
I01
sS'1111111111111111111110'
p1961
I01
sS'011111111000'
p1962
I01
sS'011111111001'
p1963
I01
sS'010111000'
p1964
I00
sS'0110000011010111010'
p1965
I00
sS'11101010'
p1966
I00
sS'0011111110001111'
p1967
I01
sS'0011110000'
p1968
I01
sS'0011110001'
p1969
I01
sS'00110110'
p1970
I00
sS'00110111'
p1971
I01
sS'0101111101011000110'
p1972
I00
sS'0111111111101'
p1973
I01
sS'0000011000000000111'
p1974
I01
sS'0000000000011000000001'
p1975
I01
sS'0111101100110010'
p1976
I00
sS'0000001111001111'
p1977
I01
sS'0000111111111000000000'
p1978
I01
sS'0000001111111011'
p1979
I01
sS'10000'
p1980
I01
sS'1000111111111'
p1981
I01
sS'0111110001'
p1982
I01
sS'1110111'
p1983
I01
sS'111101110'
p1984
I00
sS'111101111'
p1985
I01
sS'111011001110'
p1986
I00
sS'001111000011'
p1987
I01
sS'101000100011'
p1988
I00
sS'000111110000'
p1989
I01
sS'0000000000000001000111'
p1990
I01
sS'0001111111100000'
p1991
I01
sS'0101100010111001010110'
p1992
I00
sS'00001000011'
p1993
I01
sS'1110010101'
p1994
I00
sS'0110010100110'
p1995
I00
sS'100011011'
p1996
I00
sS'1110111101011'
p1997
I00
sS'1101100101100111110'
p1998
I00
sS'01000011111'
p1999
I01
sS'0001111111111011'
p2000
I01
sS'1001001000110101'
p2001
I00
sS'0000110000001111'
p2002
I01
sS'011111010110'
p2003
I00
sS'010001010'
p2004
I00
sS'0001111111111100000011'
p2005
I01
sS'0100100'
p2006
I00
sS'0000000001111110'
p2007
I01
sS'000'
p2008
I01
sS'100000000'
p2009
I01
sS'0000111111111111110'
p2010
I01
sS'1111100010110'
p2011
I00
sS'0110010011111011010'
p2012
I00
sS'01000010'
p2013
I00
sS'01000011'
p2014
I01
sS'010100001'
p2015
I00
sS'010100000'
p2016
I00
sS'0111110111101111'
p2017
I00
sS'1011010110000100011001'
p2018
I00
sS'011110000'
p2019
I01
sS'011101111'
p2020
I01
sS'0000111100000111111'
p2021
I01
sS'100000010'
p2022
I00
sS'100100111'
p2023
I00
sS'011111100000'
p2024
I01
sS'1000011110110100110'
p2025
I00
sS'000100101'
p2026
I00
sS'000100100'
p2027
I00
sS'101000000010'
p2028
I00
sS'1010010010100000'
p2029
I00
sS'010110011'
p2030
I00
sS'010110010'
p2031
I00
sS'0000110000000000001111'
p2032
I01
sS'101001110'
p2033
I00
sS'001001010001'
p2034
I00
sS'0101000110111010'
p2035
I00
sS'0011001111'
p2036
I01
sS'0000011111101111111111'
p2037
I01
sS'01111010'
p2038
I00
sS'10101100'
p2039
I00
sS'00011110001'
p2040
I01
sS'00011110000'
p2041
I01
sS'0000010100101100000'
p2042
I00
sS'001100111'
p2043
I01
sS'1000101010001101000'
p2044
I00
sS'10101101011'
p2045
I00
sS'1101110'
p2046
I00
sS'1101111'
p2047
I01
sS'0011100000111111111111'
p2048
I01
sS'100101101101'
p2049
I00
sS'0010010110110111001'
p2050
I00
sS'0110000011'
p2051
I01
sS'1000110011111011'
p2052
I00
sS'0001110100110'
p2053
I00
sS'01100111111'
p2054
I01
sS'010101101001'
p2055
I00
sS'01010011011'
p2056
I00
sS'11111100'
p2057
I01
sS'11111101'
p2058
I01
sS'0000011100000011111'
p2059
I01
sS'11111000111'
p2060
I01
sS'1101000101111001001000'
p2061
I00
sS'010101'
p2062
I00
sS'1100111101'
p2063
I00
sS'001010'
p2064
I00
sS'001011'
p2065
I01
sS'1001110001000000101101'
p2066
I00
sS'0110000000001'
p2067
I01
sS'0110000000000'
p2068
I01
sS'1111111111111111001'
p2069
I01
sS'0000001111111111100'
p2070
I01
sS'1010100101100'
p2071
I00
sS'000101100001'
p2072
I00
sS'01000100011'
p2073
I00
sS'0000001111101'
p2074
I01
sS'100000100111'
p2075
I00
sS'0101'
p2076
I01
sS'00000000'
p2077
I01
sS'00000001'
p2078
I01
sS'0000000011111111100001'
p2079
I01
sS'0001111100000000'
p2080
I01
sS'0011111110000000000000'
p2081
I01
sS'0111111001010000110'
p2082
I00
sS'0011011000000111100'
p2083
I00
sS'11100101100'
p2084
I00
sS'0001111110111'
p2085
I01
sS'0001111010100011'
p2086
I00
sS'001000011111'
p2087
I01
sS'1110000011111111111'
p2088
I01
sS'0000000111100011'
p2089
I01
sS'0000100'
p2090
I01
sS'00011100011'
p2091
I01
sS'1111001110101011010'
p2092
I00
sS'001111100'
p2093
I01
sS'001111101'
p2094
I01
sS'1101011001001000001100'
p2095
I00
sS'0110101000111110'
p2096
I00
sS'1001011011'
p2097
I00
sS'11001100'
p2098
I00
sS'01100001111'
p2099
I01
sS'0000011111100000001111'
p2100
I01
sS'0000110'
p2101
I01
sS'0010100000'
p2102
I00
sS'0010100001'
p2103
I00
sS'1011100110'
p2104
I00
sS'01100101111'
p2105
I00
sS'000001110000'
p2106
I01
sS'0000000000001110'
p2107
I01
sS'0110111111100001011010'
p2108
I00
sS'0000111000111111'
p2109
I01
sS'1000000010110111000'
p2110
I00
sS'0000100111111111'
p2111
I01
sS'1111010110'
p2112
I00
sS'11100111'
p2113
I01
sS'010000'
p2114
I01
sS'0110110110'
p2115
I00
sS'01110010'
p2116
I00
sS'01110011'
p2117
I01
sS'0000010011110101100'
p2118
I00
sS'0111111111000001'
p2119
I01
sS'0111111100000000001111'
p2120
I01
sS'0011100'
p2121
I01
sS'0011100011'
p2122
I01
sS'000000000111'
p2123
I01
sS'0000011111111110011'
p2124
I01
sS'0000111110011111'
p2125
I01
sS'1010101001010'
p2126
I00
sS'0000001111100000'
p2127
I01
sS'110101'
p2128
I00
sS'0011100000000'
p2129
I01
sS'0011100000001'
p2130
I01
sS'0111000001'
p2131
I01
sS'0000000000'
p2132
I01
sS'0000000001'
p2133
I01
sS'00011011'
p2134
I01
sS'00011010'
p2135
I00
sS'0001000001'
p2136
I01
sS'0001000000'
p2137
I01
sS'0011000000011'
p2138
I01
sS'1111101110'
p2139
I00
sS'1111101111'
p2140
I01
sS'1011011011000'
p2141
I00
sS'0000011111000111111111'
p2142
I01
sS'0000000111100'
p2143
I01
sS'1011000101110111000'
p2144
I00
sS'0001110001111111'
p2145
I01
sS'0000011011'
p2146
I01
sS'1100001001'
p2147
I00
sS'0001111100000000000111'
p2148
I01
sS'0111111000000000000011'
p2149
I01
sS'0000000011100000001'
p2150
I01
sS'0111010010001'
p2151
I00
sS'1110011111111111111'
p2152
I01
sS'11000010001'
p2153
I00
sS'0010000111'
p2154
I01
sS'0010000110'
p2155
I00
sS'0010010100001001000011'
p2156
I00
sS'11010111'
p2157
I00
sS'0001110010011001110010'
p2158
I00
sS'000111011111'
p2159
I01
sS'0000001111111001'
p2160
I01
sS'0100000000000000011'
p2161
I01
sS'0011'
p2162
I01
sS'0010'
p2163
I01
sS'1000000000'
p2164
I01
sS'000111101'
p2165
I01
sS'000111100'
p2166
I01
sS'000011000111'
p2167
I01
sS'0000011111111100001'
p2168
I01
sS'0001111111110000'
p2169
I01
sS'0011110011'
p2170
I01
sS'011111110011'
p2171
I01
sS'0011110000000001'
p2172
I01
sS'0111111111110'
p2173
I01
sS'00110101'
p2174
I00
sS'00110100'
p2175
I00
sS'001010100010'
p2176
I00
sS'01101010110'
p2177
I00
sS'0100011110011100110101'
p2178
I00
sS'0000011001010001101110'
p2179
I00
sS'000000011100'
p2180
I01
sS'0101110111011'
p2181
I00
sS'1111111000000000000001'
p2182
I01
sS'0100111101011'
p2183
I00
sS'0111011111100101'
p2184
I00
sS'0000000000011000000011'
p2185
I01
sS'0100011100110'
p2186
I00
sS'0011111111110'
p2187
I01
sS'1001100110010'
p2188
I00
sS'111001100001'
p2189
I00
sS'0000111000001'
p2190
I01
sS'0011100001'
p2191
I01
sS'1000001010010'
p2192
I00
sS'011110001111'
p2193
I01
sS'1111110000001111'
p2194
I01
sS'1100000001101010110110'
p2195
I00
sS'011110110'
p2196
I00
sS'0000000100111'
p2197
I01
sS'100011001'
p2198
I00
sS'1101000111111'
p2199
I00
sS'0000010111111'
p2200
I01
sS'1000001010111010110010'
p2201
I00
sS'0000000011100100111'
p2202
I00
sS'0110100110100011'
p2203
I00
sS'0000000000001111000'
p2204
I01
sS'0011100000011111111111'
p2205
I01
sS'1111111110000011'
p2206
I01
sS'10110000'
p2207
I00
sS'1111111111101'
p2208
I01
sS'0111110100'
p2209
I00
sS'01000001'
p2210
I01
sS'01000000'
p2211
I01
sS'1111011000000101'
p2212
I00
sS'1010010100111101000'
p2213
I00
sS'10101'
p2214
I00
sS'10100'
p2215
I00
sS'0000111111111111101'
p2216
I01
sS'0100000010100011001101'
p2217
I00
sS'010100011'
p2218
I00
sS'000111110100'
p2219
I00
sS'011000110101'
p2220
I00
sS'100100100'
p2221
I00
sS'011000110100'
p2222
I00
sS'010110000'
p2223
I00
sS'010110001'
p2224
I00
sS'100111111'
p2225
I01
sS'0100010100'
p2226
I00
sS'1001100100011111011'
p2227
I00
sS'000100111'
p2228
I01
sS'0000011100000000000001'
p2229
I01
sS'1010000'
p2230
I00
sS'001011110010'
p2231
I00
sS'1011011011101101'
p2232
I00
sS'010110100111'
p2233
I00
sS'0011100000110011'
p2234
I00
sS'0000111111111111101111'
p2235
I01
sS'0100101000000110110'
p2236
I00
sS'0101001'
p2237
I00
sS'001100100'
p2238
I00
sS'0101001100011100'
p2239
I00
sS'100000100'
p2240
I00
sS'11111011111'
p2241
I01
sS'0101111'
p2242
I01
sS'0101110'
p2243
I00
sS'00000010000'
p2244
I01
sS'00000010001'
p2245
I01
sS'0000000011111110001'
p2246
I01
sS'010100'
p2247
I00
sS'0000101111'
p2248
I01
sS'1011010010'
p2249
I00
sS'00111100111'
p2250
I01
sS'0000011111111111011'
p2251
I01
sS'11111110'
p2252
I01
sS'1111001111'
p2253
I01
sS'111100001111'
p2254
I01
sS'111100001110'
p2255
I00
sS'0000001111111111110011'
p2256
I01
sS'000010000110'
p2257
I00
sS'1011101'
p2258
I00
sS'1011100'
p2259
I00
sS'01011100110'
p2260
I00
sS'00110001111'
p2261
I01
sS'1100111111'
p2262
I01
sS'100000000001'
p2263
I01
sS'100000000000'
p2264
I01
sS'111001101001'
p2265
I00
sS'001001'
p2266
I01
sS'001000'
p2267
I01
sS'1011011111'
p2268
I00
sS'0001100100'
p2269
I00
sS'00101111110'
p2270
I00
sS'1010011011010011110111'
p2271
I00
sS'110011111'
p2272
I01
sS'0001111000000000000001'
p2273
I01
sS'10111011110'
p2274
I00
sS'0100101111'
p2275
I00
sS'0001001110001001111'
p2276
I00
sS'100111110111'
p2277
I00
sS'100000010101'
p2278
I00
sS'00010100'
p2279
I00
sS'0101111110110'
p2280
I00
sS'001111001'
p2281
I01
sS'001111000'
p2282
I01
sS'00010101'
p2283
I00
sS'110010001011'
p2284
I00
sS'1101110101101000110101'
p2285
I00
sS'00000011'
p2286
I01
sS'00000010'
p2287
I01
sS'0000000111100000000'
p2288
I01
sS'0011100001110111110'
p2289
I00
sS'1110011101000011'
p2290
I00
sS'111000000111'
p2291
I01
sS'01101001010'
p2292
I00
sS'0011111111011111111111'
p2293
I01
sS'0111111111000001111'
p2294
I01
sS'101101001000'
p2295
I00
sS'00100000000'
p2296
I01
sS'00011100000'
p2297
I01
sS'0011001'
p2298
I01
sS'1111100000100110111010'
p2299
I00
sS'0010110100001000010010'
p2300
I00
sS'0000000000111001111111'
p2301
I01
sS'0010001011011011'
p2302
I00
sS'011010100'
p2303
I00
sS'11001111'
p2304
I01
sS'111111011111'
p2305
I01
sS'1111100011101000'
p2306
I00
sS'1110011111111111111111'
p2307
I01
sS'01101111111'
p2308
I01
sS'0000101'
p2309
I01
sS'0011111011'
p2310
I01
sS'00010001001'
p2311
I00
sS'1111011101'
p2312
I00
sS'0000011011111'
p2313
I01
sS'0111100011111111'
p2314
I01
sS'01110001'
p2315
I01
sS'01110000'
p2316
I01
sS'01010110001'
p2317
I00
sS'1100010101'
p2318
I00
sS'0111101011001'
p2319
I00
sS'0000000010111111'
p2320
I01
sS'0011111100000001'
p2321
I01
sS'1101011001100111010011'
p2322
I00
sS'0011010011111001'
p2323
I00
sS'0111100000111111111'
p2324
I01
sS'0011100000'
p2325
I01
sS'0001111101001'
p2326
I00
sS'1111111111111001111'
p2327
I01
sS'0011111111100111111111'
p2328
I01
sS'0000000010'
p2329
I01
sS'111000011111'
p2330
I01
sS'011011111'
p2331
I01
sS'011011110'
p2332
I00
sS'111100101100'
p2333
I00
sS'01010010100'
p2334
I00
sS'0000000010000000011111'
p2335
I01
sS'0011000'
p2336
I01
sS'0111000000001111111111'
p2337
I01
sS'0000000111110'
p2338
I01
sS'01001100101'
p2339
I00
sS'00101000'
p2340
I00
sS'00101001'
p2341
I00
sS'1000100000111100110101'
p2342
I00
sS'0111011100'
p2343
I00
sS'0001100111111111'
p2344
I01
sS'010101010'
p2345
I00
sS'1110100010101000010'
p2346
I00
sS'1100000111111'
p2347
I01
sS'1011111010100100001'
p2348
I00
sS'110101011'
p2349
I00
sS'101110'
p2350
I00
sS'101111'
p2351
I01
sS'0010000000000111'
p2352
I01
sS'0111000111'
p2353
I01
sS'000111110'
p2354
I01
sS'000111111'
p2355
I01
sS'10100000000'
p2356
I00
sS'1000011100'
p2357
I00
sS'11111110111'
p2358
I01
sS'101101'
p2359
I00
sS'011111110001'
p2360
I01
sS'10010110'
p2361
I00
sS'10010111'
p2362
I00
sS'0100001101000000'
p2363
I00
sS'0000000001111100111111'
p2364
I01
sS'00010011111'
p2365
I01
sS'0010100110011011'
p2366
I00
sS'00000001000'
p2367
I01
sS'00000001001'
p2368
I01
sS'0000110111'
p2369
I01
sS'1100011001101111'
p2370
I00
sS'10001001001'
p2371
I00
sS'000000101111'
p2372
I01
sS'0001010100000'
p2373
I00
sS'00001011000'
p2374
I00
sS'0001110010'
p2375
I00
sS'0001110011'
p2376
I01
sS'0000011000000000000'
p2377
I01
sS'0111000111000'
p2378
I00
sS'00110000'
p2379
I01
sS'0011111111110001111111'
p2380
I01
sS'0100001000'
p2381
I00
sS'0111000000111111'
p2382
I01
sS'011000001111'
p2383
I01
sS'000000011000'
p2384
I01
sS'000000011001'
p2385
I01
sS'0011000101010'
p2386
I00
sS'0001111111001111111111'
p2387
I01
sS'00111111111'
p2388
I01
sS'110000111'
p2389
I01
sS'0100001111111'
p2390
I01
sS'0111110111'
p2391
I01
sS'0111110110'
p2392
I00
sS'0001111000000000011'
p2393
I01
sS'0010010'
p2394
I00
sS'0001011101111110'
p2395
I00
sS'0110011010100100'
p2396
I00
sS'10110'
p2397
I00
sS'10111'
p2398
I01
sS'1010111100100100000'
p2399
I00
sS'0111011111111111'
p2400
I01
sS'01011'
p2401
I01
sS'01010'
p2402
I00
sS'0000011111000011111111'
p2403
I01
sS'001000011101'
p2404
I00
sS'100011101'
p2405
I00
sS'0110111'
p2406
I01
sS'0110110'
p2407
I00
sS'0110000000000000001'
p2408
I01
sS'0000000001111001'
p2409
I01
sS'1111111000000000001'
p2410
I01
sS'1111111111000'
p2411
I01
sS'00011111000'
p2412
I01
sS'0000111111111111001'
p2413
I01
sS'0101101'
p2414
I00
sS'01000100'
p2415
I00
sS'0010000011111101'
p2416
I00
sS'0000000110000000000011'
p2417
I01
sS'100000110'
p2418
I00
sS'100000111'
p2419
I01
sS'000000110110'
p2420
I00
sS'000000110111'
p2421
I01
sS'0000000000001100011'
p2422
I01
sS'0011100010'
p2423
I00
sS'0010000110011010110'
p2424
I00
sS'10100010'
p2425
I00
sS'0000010001111111'
p2426
I01
sS'100100000'
p2427
I00
sS'010110101'
p2428
I00
sS'010110100'
p2429
I00
sS'0110010110010011'
p2430
I00
sS'0000111100000000011'
p2431
I01
sS'0111100000011111111111'
p2432
I01
sS'001000111111'
p2433
I01
sS'0000001111011'
p2434
I01
sS'01101001'
p2435
I00
sS'01101000'
p2436
I00
sS'1011110'
p2437
I00
sS'1011111'
p2438
I01
sS'110010011011'
p2439
I00
sS'00001110011'
p2440
I01
sS'0110110011'
p2441
I00
sS'0010011'
p2442
I01
sS'000101001100'
p2443
I00
sS'10101011'
p2444
I00
sS'0000000010000011'
p2445
I01
sS'001100001'
p2446
I01
sS'001100000'
p2447
I01
sS'1001101010100011010110'
p2448
I00
sS'00010110111'
p2449
I00
sS'0010001101101101001'
p2450
I00
sS'0000001011111111'
p2451
I01
sS'110011100'
p2452
I00
sS'010001111101'
p2453
I00
sS'0111111011111111'
p2454
I01
sS'011000111'
p2455
I01
sS'000110001011'
p2456
I00
sS'001111011'
p2457
I01
sS'010100101'
p2458
I00
sS'111100110100'
p2459
I00
sS'001100'
p2460
I01
sS'001101'
p2461
I01
sS'111110010'
p2462
I00
sS'000001000011'
p2463
I01
sS'100000000100'
p2464
I00
sS'0111111110000000011111'
p2465
I01
sS'1111111100000'
p2466
I01
sS'0000000000011000011'
p2467
I01
sS'10101010'
p2468
I00
sS'1011001111110110000'
p2469
I00
sS'1111111111111100'
p2470
I01
sS'1111101111111111'
p2471
I01
sS'1001000001010100110'
p2472
I00
sS'1111100000011'
p2473
I01
sS'01110101'
p2474
I00
sS'010111'
p2475
I01
sS'010110'
p2476
I00
sS'110110'
p2477
I00
sS'110111'
p2478
I01
sS'0000111110001'
p2479
I01
sS'1010001111000110111'
p2480
I00
sS'0010101000'
p2481
I00
sS'10111110'
p2482
I00
sS'10111111'
p2483
I01
sS'00000111011'
p2484
I01
sS'0011111001'
p2485
I01
sS'00001101010'
p2486
I00
sS'0001111110001'
p2487
I01
sS'0001111110000'
p2488
I01
sS'0011101111010101001000'
p2489
I00
sS'1101111111'
p2490
I01
sS'1101011110110100110100'
p2491
I00
sS'0111001011001010111110'
p2492
I00
sS'100110100110'
p2493
I00
sS'1010110010111001000110'
p2494
I00
sS'1001000001'
p2495
I00
sS'01010110010'
p2496
I00
sS'11100001111'
p2497
I01
sS'0000100000000000100'
p2498
I00
sS'1111111100100110100101'
p2499
I00
sS'01011110001'
p2500
I00
sS'0000001'
p2501
I01
sS'0000000'
p2502
I01
sS'01111100011'
p2503
I01
sS'1000000000000000011111'
p2504
I01
sS'111111110'
p2505
I01
sS'11110011111'
p2506
I01
sS'0100001110'
p2507
I00
sS'1110001001110'
p2508
I00
sS'011011100'
p2509
I00
sS'1010110110'
p2510
I00
sS'1010110111'
p2511
I00
sS'0001111100111111111'
p2512
I01
sS'0011111111111110000111'
p2513
I01
sS'01010010110'
p2514
I00
sS'01010010111'
p2515
I00
sS'1011101011'
p2516
I00
sS'1001010'
p2517
I00
sS'000000010010'
p2518
I00
sS'0011010'
p2519
I00
sS'0011011'
p2520
I01
sS'0000001111100111'
p2521
I01
sS'1011011101111010'
p2522
I00
sS'000000010011'
p2523
I01
sS'101110111100'
p2524
I00
sS'0011100101'
p2525
I00
sS'0000001001111'
p2526
I01
sS'00100011'
p2527
I01
sS'0011100000111'
p2528
I01
sS'0110000100001011101001'
p2529
I00
sS'0010100000101011'
p2530
I00
sS'1001110000'
p2531
I00
sS'101100'
p2532
I00
sS'010101000'
p2533
I00
sS'11111101111'
p2534
I01
sS'00011111111'
p2535
I01
sS'0001000111'
p2536
I01
sS'1000101110001111'
p2537
I00
sS'0110000110100101000010'
p2538
I00
sS'0011000011011100001'
p2539
I00
sS'10100000010'
p2540
I00
sS'0000011111111100'
p2541
I01
sS'1011011110100111110'
p2542
I00
sS'1100001111'
p2543
I01
sS'01111111111'
p2544
I01
sS'10010101'
p2545
I00
sS'10010100'
p2546
I00
sS'011101000010'
p2547
I00
sS'000100000011'
p2548
I01
sS'0001111111111111011'
p2549
I01
sS'00110111111'
p2550
I01
sS'1101111001001'
p2551
I00
sS'0000000111111110001111'
p2552
I01
sS'00100011111'
p2553
I01
sS'0111000011100101'
p2554
I00
sS'11100101'
p2555
I00
sS'0000000011111100011111'
p2556
I01
sS'0001111111000000001111'
p2557
I01
sS'0111111100000111'
p2558
I01
sS'1101011011101'
p2559
I00
sS'0111001011100010101'
p2560
I00
sS'0001110001'
p2561
I01
sS'0011111111000001111111'
p2562
I01
sS'000011000000'
p2563
I01
sS'1111011001011101'
p2564
I00
sS'1000110000000000'
p2565
I00
sS'0111000101100111101'
p2566
I00
sS'00110011'
p2567
I01
sS'0000111011100'
p2568
I00
sS'0000011111111110011111'
p2569
I01
sS'1101001000001000111001'
p2570
I00
sS'000000011011'
p2571
I01
sS'0011111111111100000'
p2572
I01
sS'1111100000000111'
p2573
I01
sS'0001110000011111111'
p2574
I01
sS'00111111101'
p2575
I01
sS'0011111111001'
p2576
I01
sS'0011111111000'
p2577
I01
sS'0000111111001111111'
p2578
I01
sS'00001011100'
p2579
I00
sS'00000001101'
p2580
I01
sS'00000001100'
p2581
I01
sS'0101111111111111111111'
p2582
I01
sS'0011111111111111011'
p2583
I01
sS'110011101000'
p2584
I00
sS'0100111011111010001'
p2585
I00
sS'1001101101000101100'
p2586
I00
sS'0001100011111'
p2587
I01
sS'0001100011110'
p2588
I00
sS'111111101111'
p2589
I01
sS'01000'
p2590
I01
sS'01001'
p2591
I01
sS'0010011010'
p2592
I00
sS'111010010010'
p2593
I00
sS'0110100'
p2594
I00
sS'100011111'
p2595
I01
sS'100101010110'
p2596
I00
sS'10000010'
p2597
I00
sS'10000011'
p2598
I01
sS'00111100001'
p2599
I01
sS'00111100000'
p2600
I01
sS'1111111111011'
p2601
I01
sS'1111111100111111111111'
p2602
I01
sS'1101000011'
p2603
I00
sS'01000111'
p2604
I01
sS'01000110'
p2605
I00
sS'11101000010'
p2606
I00
sS'0000010000000011111111'
p2607
I01
sS'0101111111'
p2608
I01
sS'010110110'
p2609
I00
sS'010110111'
p2610
I00
sS'100111001'
p2611
I00
sS'100111000'
p2612
I00
sS'1100000001111011'
p2613
I00
sS'1010011110100100000110'
p2614
I00
sS'00110001'
p2615
I01
sS'01111000101'
p2616
I00
sS'101110100'
p2617
I00
sS'0111100000000000000001'
p2618
I01
sS'00001110001'
p2619
I01
sS'001100011'
p2620
I01
sS'1001101110110'
p2621
I00
sS'0100000111111'
p2622
I01
sS'0001110110111'
p2623
I00
sS'00011111101'
p2624
I01
sS'00011111100'
p2625
I01
sS'1010011110'
p2626
I00
sS'11100000100'
p2627
I00
sS'0000000001000011111'
p2628
I01
sS'1011101101110110101011'
p2629
I00
sS'1100000011000000001010'
p2630
I00
sS'10010101001'
p2631
I00
sS'111001110111'
p2632
I00
sS'0101000'
p2633
I00
sS'00000010111'
p2634
I01
sS'1111111111111110'
p2635
I01
sS'0001000011101011000100'
p2636
I00
sS'0001111110000011'
p2637
I01
sS'00011100111'
p2638
I01
sS'0000000001111111100011'
p2639
I01
sS'110101110'
p2640
I00
sS'01101100'
p2641
I00
sS'01101101'
p2642
I00
sS'001111'
p2643
I01
sS'001110'
p2644
I01
sS'000001000001'
p2645
I01
sS'0110111011010'
p2646
I00
sS'0011111111111110011111'
p2647
I01
sS'0000000000011111100111'
p2648
I01
sS'1010010011011001011110'
p2649
I00
sS'0000000101010010'
p2650
I00
sS'1111111100011'
p2651
I01
sS'0110100100'
p2652
I00
sS'01101100101'
p2653
I00
sS'01000001111'
p2654
I01
sS'110011000'
p2655
I00
sS'10100110'
p2656
I00
sS'00000100001'
p2657
I01
sS'1101101001001010'
p2658
I00
sS'1111100000001'
p2659
I01
sS'0000110000000000011'
p2660
I01
sS'0000000000000000001001'
p2661
I01
sS'110100'
p2662
I00
sS'0011011111111111'
p2663
I01
sS'0011111111111000'
p2664
I01
sS'0101010101000'
p2665
I00
sS'0011000111111111111111'
p2666
I01
sS'1111110000'
p2667
I01
sS'1111110001'
p2668
I01
sS'10111101'
p2669
I00
sS'0011111101111111111'
p2670
I01
sS'1100111000111'
p2671
I00
sS'0001111110011'
p2672
I01
sS'00000111000'
p2673
I01
sS'00000111001'
p2674
I01
sS'0010001001101010000001'
p2675
I00
sS'1000010001111'
p2676
I00
sS'01111111011'
p2677
I01
sS'0011110111011001011100'
p2678
I00
sS'11000001111'
p2679
I01
sS'111100101011'
p2680
I00
sS'011'
p2681
I01
sS'1000000111'
p2682
I01
sS'0000000011100011111'
p2683
I01
sS'1100000011111'
p2684
I01
sS'111010001011'
p2685
I00
sS'0000100000000000111'
p2686
I01
sS'1111111110000111111111'
p2687
I01
sS'0000011'
p2688
I01
sS'01111100000'
p2689
I01
sS'01111100001'
p2690
I01
sS'00111001111'
p2691
I01
sS'111111100'
p2692
I01
sS'111111101'
p2693
I01
sS'110110111'
p2694
I00
sS'110110110'
p2695
I00
sS'1010110101'
p2696
I00
sS'0010110110'
p2697
I00
sS'0011111100'
p2698
I01
sS'0011111101'
p2699
I01
sS'1100001001110001'
p2700
I00
sS'0011000111001000100'
p2701
I00
sS'1'
p2702
I01
sS'0110100110'
p2703
I00
sS'01110111'
p2704
I01
sS'01110110'
p2705
I00
sS'0111111111000011'
p2706
I01
sS'1011001100000001111101'
p2707
I00
sS'0000110111111111111'
p2708
I01
sS'101101100101'
p2709
I00
sS'0000001111110011111'
p2710
I01
sS'01111110010'
p2711
I00
sS'000000000011'
p2712
I01
sS'0011111111111100011111'
p2713
I01
sS'0011100111'
p2714
I01
sS'0011011110001010010'
p2715
I00
sS'0111100111110010'
p2716
I00
sS'0001000011111111'
p2717
I01
sS'0111111000001'
p2718
I01
sS'00100000'
p2719
I01
sS'0111000000'
p2720
I01
sS'0000000000011100011'
p2721
I01
sS'1111111111111011111111'
p2722
I01
sS'1001110010'
p2723
I00
sS'0001111111111111100011'
p2724
I01
sS'1000111101011110'
p2725
I00
sS'0010011011011101'
p2726
I00
sS'0000010000011'
p2727
I01
sS'0001110000011'
p2728
I01
sS'1100111011000110'
p2729
I00
sS'1110000000111111'
p2730
I01
sS'111111110110'
p2731
I00
sS'01001000'
p2732
I00
sS'11000101'
p2733
I00
sS'01001001'
p2734
I00
sS'01111011001'
p2735
I00
sS'0000000100000011111'
p2736
I01
sS'100011111111'
p2737
I01
sS'001000001111'
p2738
I01
sS'000011111'
p2739
I01
sS'000011110'
p2740
I01
sS'1111111111010010110110'
p2741
I00
sS'01100110010'
p2742
I00
sS'000100000000'
p2743
I01
sS'11110001'
p2744
I01
sS'010000011'
p2745
I01
sS'0111000000000000011'
p2746
I01
sS'1110011010111100001001'
p2747
I00
sS'11010110'
p2748
I00
sS'000001110001'
p2749
I01
sS'0011111111000111'
p2750
I01
sS'00100110001'
p2751
I00
sS'101000'
p2752
I00
sS'101001'
p2753
I00
sS'1011001101111111'
p2754
I00
sS'1010100010'
p2755
I00
sS'110111101001'
p2756
I00
sS'1111111010001001011'
p2757
I00
sS'111001110010'
p2758
I00
sS'111'
p2759
I01
sS'110'
p2760
I01
sS'000011000011'
p2761
I01
sS'1110111011011101100111'
p2762
I00
sS'011110'
p2763
I01
sS'1011010000001011110'
p2764
I00
sS'0011111100000'
p2765
I01
sS'0000000011101111'
p2766
I01
sS'011110111'
p2767
I01
sS'011100010'
p2768
I00
sS'0111011100101'
p2769
I00
sS'110101100010'
p2770
I00
sS'10100010101'
p2771
I00
sS'1100100100100001'
p2772
I00
sS'0010110111010101100'
p2773
I00
sS'0101001000101'
p2774
I00
sS'0100000010101010'
p2775
I00
sS'1011001110010101100011'
p2776
I00
sS'0011111111000000000001'
p2777
I01
sS'1000011101011101010'
p2778
I00
sS'0000110001'
p2779
I01
sS'00000001110'
p2780
I01
sS'00000001111'
p2781
I01
sS'1110010101000'
p2782
I00
sS'0000101101000011'
p2783
I00
sS'1111110000000000011111'
p2784
I01
sS'0000111000000001111'
p2785
I01
sS'110111010111'
p2786
I00
sS'0011001000'
p2787
I00
sS'0100000000001111111111'
p2788
I01
sS'1110111100'
p2789
I00
sS'1001110101100001001100'
p2790
I00
sS'11010101111'
p2791
I00
sS'0000000001100011'
p2792
I01
sS'0000000111110000'
p2793
I01
sS'000000111'
p2794
I01
sS'000000110'
p2795
I01
sS'10000001'
p2796
I01
sS'10000000'
p2797
I01
sS'0000011110000000111111'
p2798
I01
sS'00111100011'
p2799
I01
sS'1000001101101111001000'
p2800
I00
sS'0000010010100110001100'
p2801
I00
sS'010011000'
p2802
I00
sS'110000001'
p2803
I01
sS'110000000'
p2804
I01
sS'1101000000'
p2805
I00
sS'0011110011110101010'
p2806
I00
sS'0010110010100'
p2807
I00
sS'0101110010000011'
p2808
I00
sS'0011111000000111'
p2809
I01
sS'0100111111'
p2810
I01
sS'01101'
p2811
I01
sS'01100'
p2812
I01
sS'1011100010000000'
p2813
I00
sS'0001110111100101'
p2814
I00
sS'001111110101'
p2815
I00
sS'0110001'
p2816
I01
sS'0110000'
p2817
I01
sS'100111010'
p2818
I00
sS'0000101010001001001010'
p2819
I00
sS'001011110111'
p2820
I00
sS'0011000000111111'
p2821
I01
sS'1101000101100100010'
p2822
I00
sS'1000010011011101100'
p2823
I00
sS'0110100000010011101'
p2824
I00
sS'1100000000000001111111'
p2825
I01
sS'1111111'
p2826
I01
sS'1111110'
p2827
I01
sS'11110000111'
p2828
I01
sS'111100111'
p2829
I01
sS'1010011100'
p2830
I00
sS'00100011110'
p2831
I00
sS'1111111111111000111'
p2832
I01
sS'100001000110'
p2833
I00
sS'0011111000110000'
p2834
I00
sS'00010010'
p2835
I00
sS'00010011'
p2836
I01
sS'0101010'
p2837
I00
sS'0101011'
p2838
I00
sS'000000110001'
p2839
I01
sS'1111101000101000'
p2840
I00
sS'0010011000010111010100'
p2841
I00
sS'0000100011'
p2842
I01
sS'11100010'
p2843
I00
sS'0011110000000000000011'
p2844
I01
sS'100110'
p2845
I00
sS'0000010011'
p2846
I01
sS'0001111001111'
p2847
I01
sS'1101001100100001111010'
p2848
I00
sS'1000011001111010110000'
p2849
I00
sS'01101111'
p2850
I01
sS'01101110'
p2851
I00
sS'1010101011111010010'
p2852
I00
sS'1110110111101100'
p2853
I00
sS'1010110111101000010'
p2854
I00
sS'010111111111'
p2855
I01
sS'1000010111110111'
p2856
I00
sS'0111110000000'
p2857
I01
sS'10100100'
p2858
I00
sS'111011101100'
p2859
I00
sS'1111001100000000000'
p2860
I00
sS'1111110000011111'
p2861
I01
sS'1001101011101100'
p2862
I00
sS'000011110111'
p2863
I01
sS'1000011011111'
p2864
I00
sS'011000001'
p2865
I01
sS'011000000'
p2866
I01
sS'1111110011'
p2867
I01
sS'1111110010'
p2868
I00
sS'101000110'
p2869
I00
sS'0000111111110000000111'
p2870
I01
sS'0000000011110000000011'
p2871
I01
sS'0000011111110000000'
p2872
I01
sS'010000100001'
p2873
I00
sS'010100110001'
p2874
I00
sS'111111000000'
p2875
I01
sS'111111000001'
p2876
I01
sS'111110000000'
p2877
I01
sS'001110111'
p2878
I01
sS'1100111'
p2879
I01
sS'1100110'
p2880
I00
sS'1111111110100'
p2881
I00
sS'11011111111'
p2882
I01
ss.