(dp0
S'num_neg'
p1
I1970
sS'num_pos'
p2
I1821
sS'data'
p3
(dp4
S''
p5
I01
sS'10110110111111011101'
p6
I00
sS'1000101001101'
p7
I00
sS'01000110100100110'
p8
I01
sS'110001'
p9
I01
sS'000100011000'
p10
I01
sS'10101010000'
p11
I01
sS'0110010000'
p12
I00
sS'110101000011000111'
p13
I01
sS'111111011010'
p14
I01
sS'110111000111'
p15
I00
sS'11011000011000011100'
p16
I00
sS'010011000010'
p17
I00
sS'110110101'
p18
I01
sS'11111001111'
p19
I00
sS'00111010111'
p20
I01
sS'111110111010111'
p21
I01
sS'000011100010100'
p22
I00
sS'011101111101101000'
p23
I00
sS'1111001110'
p24
I00
sS'10111000'
p25
I01
sS'10111001'
p26
I00
sS'0001101010'
p27
I00
sS'1010111010010001100'
p28
I00
sS'11000101101100110111'
p29
I00
sS'001001001100'
p30
I00
sS'110000010101000011'
p31
I00
sS'1000000001111110'
p32
I00
sS'0111010001001001'
p33
I00
sS'1010000011001110101'
p34
I00
sS'0010101010101101'
p35
I01
sS'111001111'
p36
I00
sS'111001110'
p37
I01
sS'000011011'
p38
I00
sS'00110011111'
p39
I01
sS'1100000011011010'
p40
I00
sS'1111010001001'
p41
I00
sS'11110111011110110111'
p42
I01
sS'1011001110'
p43
I00
sS'11100001000'
p44
I01
sS'0100111111110'
p45
I00
sS'0011010100'
p46
I00
sS'101100001'
p47
I00
sS'01111100100'
p48
I00
sS'1111111011110001101'
p49
I01
sS'001010100'
p50
I01
sS'001010101'
p51
I00
sS'100101100111'
p52
I00
sS'000110010110'
p53
I00
sS'0000110010101111'
p54
I01
sS'10101000111100100101'
p55
I01
sS'1110111111101010110'
p56
I01
sS'11111111001101110'
p57
I01
sS'011011011'
p58
I01
sS'111101111111011011'
p59
I01
sS'10010101111011101'
p60
I00
sS'10001111010101110'
p61
I01
sS'1011101100'
p62
I00
sS'111101000111111111'
p63
I00
sS'101011101'
p64
I01
sS'111010000100010'
p65
I01
sS'0101001111110101'
p66
I00
sS'01100011010001101011'
p67
I01
sS'11001010001010101'
p68
I00
sS'101010011110000000'
p69
I00
sS'100101111100'
p70
I00
sS'100111101100101011'
p71
I00
sS'01000000001010100'
p72
I01
sS'0111110100010101'
p73
I00
sS'0001100'
p74
I01
sS'0000001001000'
p75
I01
sS'1011111111100111110'
p76
I00
sS'1001001010000010'
p77
I01
sS'000011100'
p78
I01
sS'1011001110011011101'
p79
I00
sS'0101010011'
p80
I01
sS'00010010011000011101'
p81
I00
sS'100100001001100001'
p82
I01
sS'001011000101111101'
p83
I00
sS'1011111111011111'
p84
I01
sS'100011'
p85
I01
sS'11101110'
p86
I00
sS'11101111'
p87
I01
sS'1111011110'
p88
I01
sS'1001011010011101111'
p89
I00
sS'101011'
p90
I00
sS'111100011111'
p91
I01
sS'010000000001100'
p92
I01
sS'10111110101'
p93
I00
sS'001101001011100'
p94
I00
sS'1010100000'
p95
I00
sS'1011000001100'
p96
I01
sS'11011110'
p97
I00
sS'11011111'
p98
I01
sS'0100101000000110'
p99
I01
sS'00100110111011010'
p100
I00
sS'10010000010000100'
p101
I01
sS'01110000001'
p102
I01
sS'100'
p103
I00
sS'101101111110'
p104
I01
sS'111101110010000110'
p105
I00
sS'100101011'
p106
I00
sS'0001010111'
p107
I01
sS'0110111011110111001'
p108
I00
sS'0000000100000001000'
p109
I01
sS'011110101'
p110
I01
sS'001001001'
p111
I01
sS'0100010'
p112
I01
sS'01000011011100011110'
p113
I01
sS'011110110111'
p114
I01
sS'10011110'
p115
I00
sS'1001010100001000000'
p116
I01
sS'101010100110000'
p117
I01
sS'01011100'
p118
I01
sS'01011101'
p119
I00
sS'1111110101111111'
p120
I01
sS'00111001100001000011'
p121
I00
sS'11111101111111111'
p122
I01
sS'000110001110100'
p123
I01
sS'010100000010000000'
p124
I01
sS'00000001000000000'
p125
I01
sS'00010111100001110011'
p126
I01
sS'100110000'
p127
I01
sS'0010011101'
p128
I01
sS'10110001110001110'
p129
I00
sS'0011111110001'
p130
I01
sS'01111111111111111'
p131
I01
sS'1010100001010100'
p132
I00
sS'0100001111001'
p133
I00
sS'000100110001001'
p134
I00
sS'10110011101'
p135
I01
sS'000000101010'
p136
I01
sS'0000010100000000'
p137
I01
sS'0001000000000111'
p138
I00
sS'1001001011111000'
p139
I01
sS'10110001010'
p140
I00
sS'110110101110011'
p141
I00
sS'1110110'
p142
I01
sS'10100101100110001101'
p143
I01
sS'111001100100'
p144
I01
sS'00101001011100111'
p145
I00
sS'0100010111100110111'
p146
I01
sS'11000100111110101001'
p147
I00
sS'100011100101'
p148
I01
sS'000001100100100'
p149
I00
sS'010101110001001'
p150
I00
sS'11011111111111111'
p151
I01
sS'100000001000101'
p152
I00
sS'101101011010010110'
p153
I00
sS'1001110101001011'
p154
I00
sS'0010001100110010000'
p155
I00
sS'110000010'
p156
I01
sS'11110001111'
p157
I00
sS'101001110011'
p158
I00
sS'110000111000011110'
p159
I01
sS'00101011110000101'
p160
I00
sS'0111011110001000'
p161
I01
sS'0000011110011100101'
p162
I00
sS'0011100011111111011'
p163
I00
sS'1111111110111110111'
p164
I01
sS'00010000100000110'
p165
I01
sS'10111111111011110110'
p166
I01
sS'0001010101101'
p167
I00
sS'01110'
p168
I00
sS'01111'
p169
I01
sS'1100000101111'
p170
I00
sS'11111111111101111111'
p171
I01
sS'00001010'
p172
I00
sS'00001011'
p173
I00
sS'0111111110111'
p174
I01
sS'111111101001'
p175
I01
sS'000010000000101'
p176
I01
sS'1111101111111101'
p177
I01
sS'1000111111111110000'
p178
I00
sS'01100010101001010'
p179
I01
sS'00110110000110011'
p180
I00
sS'11011101011101111'
p181
I01
sS'111111111111111'
p182
I01
sS'000101111'
p183
I00
sS'000101010100101'
p184
I01
sS'10000001000100100'
p185
I01
sS'10000100'
p186
I00
sS'10000101'
p187
I00
sS'110001010111'
p188
I00
sS'110001100010000111'
p189
I00
sS'10010111101100101100'
p190
I00
sS'1111100'
p191
I01
sS'1111101'
p192
I00
sS'010011101'
p193
I00
sS'0011010110'
p194
I01
sS'00010001'
p195
I00
sS'00010000'
p196
I01
sS'0101100100001'
p197
I01
sS'111100101'
p198
I01
sS'010101001110'
p199
I01
sS'100010101000'
p200
I00
sS'001001110111100'
p201
I00
sS'11110110'
p202
I00
sS'1101100110000000100'
p203
I00
sS'0010000001000'
p204
I01
sS'00010110110101111101'
p205
I00
sS'1011001111010100110'
p206
I01
sS'111001111101'
p207
I01
sS'0000001000001110011'
p208
I00
sS'111111111111111111'
p209
I01
sS'01100001100100000110'
p210
I01
sS'10000000000101000001'
p211
I01
sS'0001101001110100'
p212
I00
sS'10110010'
p213
I01
sS'10110011'
p214
I00
sS'001011000100011011'
p215
I00
sS'010110000110011101'
p216
I01
sS'1111100010010101110'
p217
I01
sS'00000000000000111011'
p218
I00
sS'011010110001101'
p219
I00
sS'11010001111111100'
p220
I00
sS'1000011101010110'
p221
I01
sS'0000100000010'
p222
I01
sS'1010011001'
p223
I01
sS'111011101110'
p224
I01
sS'10001111111111110'
p225
I01
sS'0100110101'
p226
I01
sS'110011001000'
p227
I00
sS'110010100111011'
p228
I01
sS'101111111011001011'
p229
I00
sS'1000'
p230
I00
sS'1101110000010'
p231
I00
sS'011101000010011110'
p232
I01
sS'11101111010011111'
p233
I01
sS'11110010101000110'
p234
I00
sS'0000101001101'
p235
I01
sS'011000110'
p236
I00
sS'101000100'
p237
I01
sS'0001001000000'
p238
I01
sS'011000010'
p239
I01
sS'11011011111'
p240
I00
sS'001011000110011'
p241
I00
sS'000000111010100001'
p242
I01
sS'11101111111111001011'
p243
I01
sS'111001001010'
p244
I01
sS'111001001011'
p245
I00
sS'000001000110'
p246
I01
sS'10010011111'
p247
I01
sS'001000000100000100'
p248
I01
sS'1011110111'
p249
I01
sS'001101110'
p250
I00
sS'0011101100001010110'
p251
I00
sS'001111011'
p252
I01
sS'100011010001001101'
p253
I00
sS'00010111111'
p254
I01
sS'111111011011110'
p255
I01
sS'10011100111'
p256
I01
sS'10100001'
p257
I00
sS'011010110000'
p258
I00
sS'10001111001000101'
p259
I00
sS'0101100000000011000'
p260
I01
sS'10000100000001100'
p261
I01
sS'0000010001'
p262
I01
sS'10000110010'
p263
I01
sS'01000001001000100000'
p264
I01
sS'1111111110110'
p265
I01
sS'110011'
p266
I00
sS'110010'
p267
I01
sS'01110000001010101111'
p268
I01
sS'0001110010000010'
p269
I01
sS'1001100000111110001'
p270
I00
sS'0000010010000000000'
p271
I01
sS'0101011011111001'
p272
I00
sS'101001111110'
p273
I00
sS'11011011001010001000'
p274
I00
sS'10111010'
p275
I00
sS'01001100111011111100'
p276
I00
sS'011100000011'
p277
I00
sS'1101000000111111111'
p278
I00
sS'1011110110110'
p279
I00
sS'11110110111001111'
p280
I01
sS'1101111011'
p281
I01
sS'0000000000000010100'
p282
I01
sS'11100010000'
p283
I01
sS'1101011101011001'
p284
I00
sS'011101111011111'
p285
I01
sS'010010100000000'
p286
I01
sS'1010000111010000011'
p287
I01
sS'101001001'
p288
I00
sS'101110010011100'
p289
I00
sS'0000001001000000'
p290
I01
sS'0110101111111000101'
p291
I00
sS'010000000100010'
p292
I01
sS'0000010001101110'
p293
I00
sS'011110011111'
p294
I01
sS'010000001001'
p295
I01
sS'111001100'
p296
I00
sS'111001101'
p297
I01
sS'11110101100'
p298
I01
sS'011101010111101010'
p299
I00
sS'110111110110011010'
p300
I01
sS'11000011001'
p301
I00
sS'000010101010011'
p302
I01
sS'001000011'
p303
I01
sS'001000010'
p304
I00
sS'1001100010'
p305
I00
sS'0000000000000101'
p306
I01
sS'0000000000100000100'
p307
I01
sS'001010001000'
p308
I01
sS'110110001'
p309
I00
sS'0000110011011001110'
p310
I00
sS'111000011011100111'
p311
I00
sS'100000100000001'
p312
I01
sS'1111000011011'
p313
I01
sS'10010000001111001'
p314
I01
sS'111000001110'
p315
I01
sS'011011010'
p316
I00
sS'11110011010'
p317
I01
sS'1000000100'
p318
I01
sS'1000000101'
p319
I00
sS'0110011010110'
p320
I00
sS'111111011101000'
p321
I00
sS'011101011111101'
p322
I00
sS'01111001011'
p323
I01
sS'1011101111'
p324
I01
sS'1011101110'
p325
I00
sS'011010000'
p326
I01
sS'011010001'
p327
I00
sS'010001010'
p328
I01
sS'110100011'
p329
I00
sS'0010100000000'
p330
I01
sS'11100111101'
p331
I00
sS'1111111011111011'
p332
I01
sS'111111111001110101'
p333
I00
sS'11000110'
p334
I01
sS'11000111'
p335
I00
sS'010000001000000100'
p336
I01
sS'011010010'
p337
I00
sS'00011001111'
p338
I00
sS'00001101111001111'
p339
I01
sS'0111100000100'
p340
I01
sS'000101010010111'
p341
I00
sS'111101100000100010'
p342
I00
sS'10111001010110100'
p343
I00
sS'001110011111010011'
p344
I00
sS'001010001'
p345
I01
sS'001010000'
p346
I00
sS'1001111'
p347
I01
sS'1001110'
p348
I00
sS'100001'
p349
I00
sS'100000'
p350
I00
sS'11100110101111101011'
p351
I00
sS'1111011101'
p352
I01
sS'11101101'
p353
I00
sS'1100010010001000'
p354
I01
sS'111010110'
p355
I01
sS'001111011010'
p356
I00
sS'1100000110111'
p357
I00
sS'11001111110001101011'
p358
I01
sS'110110101111011'
p359
I00
sS'0111101111100101'
p360
I01
sS'01110011101000001110'
p361
I01
sS'1101010101001000'
p362
I00
sS'0011110011000'
p363
I00
sS'100101000'
p364
I01
sS'01010110010110111001'
p365
I00
sS'1101111101111'
p366
I01
sS'1110111101011111011'
p367
I00
sS'111111100110111111'
p368
I01
sS'001001010'
p369
I01
sS'001001011'
p370
I00
sS'111101000011'
p371
I00
sS'000001100000001'
p372
I01
sS'00110011001010111'
p373
I00
sS'0110001101'
p374
I01
sS'0100000'
p375
I00
sS'0100001'
p376
I01
sS'1011101010101001000'
p377
I00
sS'0010001000010110'
p378
I01
sS'010111001001110100'
p379
I01
sS'000011001'
p380
I01
sS'000011000'
p381
I00
sS'10000101011'
p382
I00
sS'00010001000001000010'
p383
I01
sS'01011111'
p384
I00
sS'01011110'
p385
I00
sS'1000000010011110001'
p386
I00
sS'1000010110011'
p387
I00
sS'10010000111111011'
p388
I01
sS'010000101'
p389
I01
sS'010000100'
p390
I00
sS'0101110110100001100'
p391
I00
sS'0010000010000'
p392
I01
sS'0000000010010000'
p393
I01
sS'01011111101101000010'
p394
I00
sS'010000010000010'
p395
I01
sS'11010111001011010101'
p396
I00
sS'101100010'
p397
I00
sS'11111111011111111111'
p398
I01
sS'1000101000010'
p399
I00
sS'011010100111000000'
p400
I00
sS'01110000101'
p401
I00
sS'01110000100'
p402
I01
sS'0010101011010001'
p403
I00
sS'10101000100010011'
p404
I01
sS'101100100001'
p405
I00
sS'011110001'
p406
I00
sS'000100000000001001'
p407
I01
sS'011001000101000'
p408
I00
sS'111000011001011'
p409
I00
sS'11011100'
p410
I00
sS'1001110010011101110'
p411
I01
sS'0001100000000'
p412
I01
sS'010100011111100'
p413
I00
sS'10010001110101001110'
p414
I01
sS'1101110010111100'
p415
I00
sS'00111110110101100100'
p416
I00
sS'111011110110101'
p417
I00
sS'10110111010000000'
p418
I01
sS'000110110'
p419
I00
sS'100011010110'
p420
I01
sS'101011011100111'
p421
I00
sS'1101011101110'
p422
I00
sS'101010110100100'
p423
I00
sS'00000010'
p424
I01
sS'110101000001'
p425
I00
sS'010111011110'
p426
I00
sS'000001010100000'
p427
I01
sS'0100100100'
p428
I00
sS'011110100101110001'
p429
I00
sS'11010000101000010'
p430
I00
sS'11000111100'
p431
I00
sS'11101110101011111111'
p432
I01
sS'11111111110'
p433
I01
sS'01011011100000101'
p434
I00
sS'001110011'
p435
I00
sS'0100000011100100'
p436
I01
sS'11001100001000100111'
p437
I00
sS'110010000000'
p438
I01
sS'00001001'
p439
I00
sS'00001000'
p440
I01
sS'1000101001111'
p441
I00
sS'000000000'
p442
I01
sS'00010100111100111'
p443
I00
sS'100000001000001'
p444
I01
sS'00010100111'
p445
I00
sS'10100110'
p446
I01
sS'01000010001'
p447
I00
sS'111101110110'
p448
I01
sS'0000000010100000000'
p449
I01
sS'10000111'
p450
I01
sS'10000110'
p451
I00
sS'110001010101'
p452
I01
sS'10111110011000000'
p453
I00
sS'0000001001'
p454
I01
sS'01010001100'
p455
I01
sS'00101010001001000'
p456
I00
sS'0101100100010'
p457
I01
sS'010011111'
p458
I01
sS'1101000110'
p459
I01
sS'00000000000010000'
p460
I01
sS'0000011011001101'
p461
I00
sS'01101000100000000'
p462
I01
sS'1111110110111'
p463
I01
sS'000101001001011'
p464
I01
sS'011111110110010111'
p465
I00
sS'011111101110'
p466
I01
sS'00110101111'
p467
I01
sS'1010000000'
p468
I01
sS'1010000001'
p469
I00
sS'0100010110000000'
p470
I00
sS'1010101111101'
p471
I00
sS'1111111111001111'
p472
I01
sS'10110001'
p473
I01
sS'10110000'
p474
I00
sS'000110111'
p475
I00
sS'01111111111111111111'
p476
I01
sS'010111000000'
p477
I00
sS'11111111111101111'
p478
I01
sS'0111111110'
p479
I01
sS'001111110001011'
p480
I01
sS'0011000100111'
p481
I00
sS'0000100000001'
p482
I01
sS'1000110011001011'
p483
I01
sS'00010101'
p484
I00
sS'10000011011000110011'
p485
I00
sS'11110011111100111'
p486
I01
sS'1110001011000001'
p487
I00
sS'11111'
p488
I00
sS'1100010011111000'
p489
I01
sS'1111001'
p490
I01
sS'00010001000001001'
p491
I01
sS'0001111100010100'
p492
I00
sS'010010101'
p493
I00
sS'10111111'
p494
I01
sS'011110100100100110'
p495
I01
sS'000111111111'
p496
I01
sS'000101100'
p497
I01
sS'00010010000010010'
p498
I01
sS'11010111001100010'
p499
I00
sS'1011011111111'
p500
I01
sS'100000001101101'
p501
I01
sS'0000010100'
p502
I01
sS'100010'
p503
I00
sS'01100101000'
p504
I01
sS'110101011'
p505
I01
sS'0001001110111011'
p506
I00
sS'110101100100011'
p507
I00
sS'1111111111110011111'
p508
I01
sS'01001101011000111011'
p509
I00
sS'100010111'
p510
I00
sS'1000001101011000'
p511
I00
sS'01111100011110010'
p512
I01
sS'0011101111000101000'
p513
I00
sS'0011011110'
p514
I00
sS'00011110000'
p515
I01
sS'11001000011001100100'
p516
I00
sS'100111001101010'
p517
I00
sS'011111101010010'
p518
I01
sS'1010110011101011'
p519
I00
sS'0000101000000000'
p520
I01
sS'010001010010010'
p521
I00
sS'0001110100111001110'
p522
I00
sS'00010111101'
p523
I00
sS'101010'
p524
I01
sS'1111011101111'
p525
I01
sS'010111010101010'
p526
I00
sS'10100011'
p527
I01
sS'10100010'
p528
I00
sS'100001110'
p529
I00
sS'10101010'
p530
I01
sS'0010010'
p531
I01
sS'01000000011'
p532
I00
sS'001010011010100'
p533
I01
sS'101111101111101'
p534
I01
sS'01001011011011011110'
p535
I00
sS'1110000111100001100'
p536
I00
sS'1011101010110010001'
p537
I00
sS'01010001110'
p538
I00
sS'1010000000111000101'
p539
I00
sS'00100000101101010'
p540
I00
sS'000110011011'
p541
I01
sS'101001111101'
p542
I00
sS'00111010'
p543
I01
sS'00111011'
p544
I00
sS'10111111011011011'
p545
I01
sS'010000010001'
p546
I01
sS'0011110100010010'
p547
I00
sS'1010111'
p548
I01
sS'1010110'
p549
I00
sS'00001010011000110100'
p550
I01
sS'0101100101100'
p551
I00
sS'000001111010001110'
p552
I00
sS'110011100010011100'
p553
I01
sS'011110011111110'
p554
I00
sS'011110011111111'
p555
I01
sS'0100111'
p556
I00
sS'101111110000000010'
p557
I00
sS'110001010111010'
p558
I00
sS'1110101000110'
p559
I00
sS'1011001101000001100'
p560
I01
sS'1100001'
p561
I00
sS'01111111111'
p562
I01
sS'1110111111101'
p563
I01
sS'10001111100'
p564
I00
sS'001000000'
p565
I00
sS'001000001'
p566
I00
sS'10001111001011111001'
p567
I00
sS'1001100001000100010'
p568
I00
sS'0100000000001000000'
p569
I01
sS'101110011000001000'
p570
I00
sS'001101111110'
p571
I00
sS'0000010101101'
p572
I01
sS'11011000100'
p573
I00
sS'1110011001'
p574
I00
sS'0100100001'
p575
I00
sS'00001110000'
p576
I00
sS'110110010'
p577
I00
sS'111101111100111'
p578
I01
sS'0101011010010'
p579
I00
sS'10010001101011010011'
p580
I01
sS'1110101111000'
p581
I01
sS'10110000001'
p582
I01
sS'010100011011001110'
p583
I01
sS'100000111010001000'
p584
I01
sS'00111001011'
p585
I00
sS'110100000'
p586
I01
sS'110100001'
p587
I00
sS'1000000111'
p588
I00
sS'00111000010'
p589
I01
sS'110111100000100111'
p590
I00
sS'1111100011111'
p591
I00
sS'11001110111100100111'
p592
I01
sS'10000100100'
p593
I00
sS'010011111010101100'
p594
I00
sS'00110101100'
p595
I00
sS'111001000'
p596
I00
sS'000110110100'
p597
I00
sS'11000101'
p598
I01
sS'11000100'
p599
I00
sS'11011011001'
p600
I01
sS'110000110110'
p601
I01
sS'011111101101'
p602
I01
sS'011110'
p603
I00
sS'0001011110010111'
p604
I00
sS'001111001010'
p605
I01
sS'101'
p606
I00
sS'1100011010010011'
p607
I01
sS'1000001101110111'
p608
I00
sS'01111110100011110'
p609
I00
sS'101100110'
p610
I00
sS'101100111'
p611
I01
sS'1110000101'
p612
I01
sS'1001100'
p613
I00
sS'1001101'
p614
I00
sS'001010010'
p615
I01
sS'001010011'
p616
I00
sS'00100010'
p617
I00
sS'01011000010'
p618
I01
sS'0000010000110'
p619
I00
sS'101011011'
p620
I01
sS'111111111100101111'
p621
I01
sS'10111111000101100'
p622
I01
sS'110011101001110001'
p623
I00
sS'000000101100000'
p624
I01
sS'111011001010000'
p625
I00
sS'001101010'
p626
I00
sS'10101000100011000'
p627
I00
sS'10010001'
p628
I00
sS'01101101010'
p629
I00
sS'1101111101101'
p630
I00
sS'011111'
p631
I00
sS'0110111111010'
p632
I00
sS'1101110101100100'
p633
I00
sS'00001100'
p634
I00
sS'000011010'
p635
I01
sS'0110001110'
p636
I01
sS'10101100011'
p637
I00
sS'0100011'
p638
I00
sS'001000001011'
p639
I00
sS'0011011010110000111'
p640
I00
sS'001001000'
p641
I00
sS'101101011111'
p642
I01
sS'01101100001101101'
p643
I00
sS'1000000011101101'
p644
I00
sS'011001001011001111'
p645
I00
sS'010000110'
p646
I01
sS'110000000101110010'
p647
I00
sS'11011000'
p648
I01
sS'000101001'
p649
I01
sS'0000000011000000'
p650
I01
sS'010010100011'
p651
I00
sS'1011011'
p652
I01
sS'01010100011'
p653
I00
sS'10011100111010111'
p654
I00
sS'100000100110101010'
p655
I00
sS'1010100111'
p656
I00
sS'01001101111'
p657
I01
sS'0100101011100110001'
p658
I00
sS'01001101000111110111'
p659
I00
sS'100101100'
p660
I00
sS'11101001101'
p661
I01
sS'01011011010111111'
p662
I00
sS'1010010001001001100'
p663
I00
sS'11111111111111111011'
p664
I01
sS'111011110110111111'
p665
I01
sS'001011011101110'
p666
I01
sS'1011001101111'
p667
I00
sS'0001101100'
p668
I00
sS'011110011'
p669
I01
sS'0110110000000000'
p670
I00
sS'11111100110'
p671
I00
sS'0101111010111011101'
p672
I00
sS'011111010'
p673
I01
sS'001110010100'
p674
I00
sS'0001100000010'
p675
I00
sS'01001011001'
p676
I00
sS'01001011000'
p677
I01
sS'100110111'
p678
I01
sS'011000000100'
p679
I01
sS'111111110'
p680
I00
sS'000110001001100100'
p681
I01
sS'100101111111011000'
p682
I00
sS'00010000000'
p683
I01
sS'01000001000010100'
p684
I01
sS'11101011111111001111'
p685
I01
sS'011110001110110110'
p686
I00
sS'1110011101001001'
p687
I00
sS'0001100011100000000'
p688
I01
sS'11111111101'
p689
I01
sS'1111001111101'
p690
I00
sS'1111000111001'
p691
I01
sS'1000001100'
p692
I00
sS'11000111110'
p693
I01
sS'10000011000110100'
p694
I00
sS'00010100010001000000'
p695
I01
sS'001110000'
p696
I01
sS'111111110100'
p697
I01
sS'0100010010111011'
p698
I01
sS'1110110111000'
p699
I01
sS'00011000111111100101'
p700
I00
sS'00101000110'
p701
I01
sS'10000111001'
p702
I00
sS'10000111000'
p703
I01
sS'100010110011'
p704
I01
sS'11000011110'
p705
I00
sS'0010001000'
p706
I01
sS'1010110110'
p707
I00
sS'010111'
p708
I00
sS'100111110011101101'
p709
I01
sS'01101011110000100101'
p710
I01
sS'0001011'
p711
I00
sS'0001010'
p712
I01
sS'01001010010011010'
p713
I01
sS'0111110011011111010'
p714
I00
sS'1101010111000011100'
p715
I00
sS'101000101010'
p716
I00
sS'0110011101101111100'
p717
I00
sS'0100100000'
p718
I01
sS'01010001010001111'
p719
I00
sS'00000001001000110011'
p720
I00
sS'01000110000100000'
p721
I01
sS'1010110011001'
p722
I00
sS'0010010001000101'
p723
I01
sS'011010100011'
p724
I01
sS'111110011'
p725
I00
sS'100111111110'
p726
I01
sS'1010000011'
p727
I00
sS'1111011011111111'
p728
I01
sS'10110110011'
p729
I01
sS'1001001111011110101'
p730
I00
sS'0100110011'
p731
I01
sS'01000011111100000110'
p732
I00
sS'011110000001100110'
p733
I00
sS'00001101'
p734
I00
sS'00100111000100001'
p735
I00
sS'0001110010001000'
p736
I01
sS'10011011110'
p737
I01
sS'000000001010001000'
p738
I01
sS'0001110011000001111'
p739
I00
sS'01000000000000000'
p740
I01
sS'0011100010110101'
p741
I01
sS'00010111'
p742
I01
sS'11110110010000101'
p743
I00
sS'0111111101'
p744
I01
sS'001101111110011100'
p745
I00
sS'0001011110'
p746
I01
sS'0000110010'
p747
I00
sS'1010110011100001'
p748
I01
sS'111100001'
p749
I00
sS'0001100010100000100'
p750
I01
sS'1111000000010'
p751
I01
sS'111011100111'
p752
I01
sS'1111010'
p753
I01
sS'110111010'
p754
I01
sS'11100'
p755
I00
sS'11101'
p756
I01
sS'0010010100010101'
p757
I00
sS'110111011'
p758
I00
sS'1011111001101'
p759
I00
sS'100101001111'
p760
I00
sS'0110000000000000'
p761
I01
sS'1111011'
p762
I00
sS'110010100100'
p763
I00
sS'1000000100000000'
p764
I01
sS'011000001001011'
p765
I01
sS'1001010111'
p766
I00
sS'10011011101000011010'
p767
I01
sS'10110100'
p768
I01
sS'10110101'
p769
I00
sS'011101111111110'
p770
I01
sS'0101101100101001010'
p771
I00
sS'1100010000101000000'
p772
I01
sS'0101100011'
p773
I01
sS'1111011011001000'
p774
I00
sS'10111010110011100011'
p775
I00
sS'011110010001001'
p776
I00
sS'0001011100110001'
p777
I00
sS'0111011101110000000'
p778
I00
sS'00001011101000000110'
p779
I01
sS'0010000'
p780
I00
sS'0010001'
p781
I01
sS'101100000100011'
p782
I01
sS'0110000100011001001'
p783
I00
sS'100001100'
p784
I01
sS'10100000'
p785
I00
sS'01000000000'
p786
I01
sS'1110111101100110'
p787
I01
sS'10101001'
p788
I01
sS'000000111100001001'
p789
I01
sS'110000000000'
p790
I00
sS'1100010001000010000'
p791
I01
sS'000011001010'
p792
I00
sS'000011001011'
p793
I00
sS'0100000001'
p794
I01
sS'001110100001'
p795
I00
sS'10011110100101101'
p796
I01
sS'00000000100001110000'
p797
I01
sS'10111101100001100110'
p798
I00
sS'101000011'
p799
I00
sS'00111001'
p800
I01
sS'11011011000'
p801
I00
sS'010000010011'
p802
I00
sS'0011111011011101011'
p803
I00
sS'101001010'
p804
I00
sS'10100010010001110'
p805
I01
sS'0011011'
p806
I00
sS'00010000010100010000'
p807
I01
sS'000110011101111011'
p808
I00
sS'011111100111'
p809
I01
sS'101010000'
p810
I01
sS'0011111001011'
p811
I01
sS'010000000001'
p812
I00
sS'01111010100'
p813
I00
sS'1111111011011111'
p814
I01
sS'0001110111110'
p815
I01
sS'10000100110100010'
p816
I00
sS'10010011000'
p817
I01
sS'10000011000'
p818
I00
sS'01101111111110101'
p819
I01
sS'00101010'
p820
I00
sS'10001110'
p821
I01
sS'100111111100111'
p822
I00
sS'1110111111110'
p823
I01
sS'011100101110010101'
p824
I00
sS'10011100001'
p825
I00
sS'1100011'
p826
I00
sS'0000110100000011'
p827
I01
sS'1001100001000100000'
p828
I01
sS'00001011110'
p829
I00
sS'111101001111111111'
p830
I01
sS'1001010111101010001'
p831
I00
sS'100100011000011'
p832
I01
sS'10010001000000001'
p833
I01
sS'00010111110011100001'
p834
I01
sS'0100000010001'
p835
I00
sS'101001111000'
p836
I01
sS'0000011100001'
p837
I00
sS'111101001011100'
p838
I01
sS'00101110100100110001'
p839
I00
sS'100110011010'
p840
I01
sS'000111'
p841
I01
sS'111101101111011'
p842
I01
sS'10110110010100001011'
p843
I01
sS'101101101'
p844
I01
sS'1111111110111011'
p845
I01
sS'100110001110110'
p846
I00
sS'1101011011100011'
p847
I00
sS'01101110110'
p848
I01
sS'1111111111110110'
p849
I01
sS'11010101011110101'
p850
I00
sS'1000111101000100'
p851
I00
sS'010011000000111'
p852
I01
sS'110001111101'
p853
I00
sS'0111101100010010'
p854
I01
sS'0100110011010001'
p855
I00
sS'1010100001001010001'
p856
I00
sS'001000101'
p857
I01
sS'1001000'
p858
I01
sS'01111110'
p859
I00
sS'01111111'
p860
I01
sS'101111110101111111'
p861
I01
sS'111001011'
p862
I01
sS'0000000000000011'
p863
I01
sS'010101110'
p864
I00
sS'010101111'
p865
I01
sS'111011111101101'
p866
I01
sS'011101'
p867
I00
sS'011100'
p868
I01
sS'110010001010010'
p869
I01
sS'011100000'
p870
I01
sS'0100011000'
p871
I00
sS'111101011101'
p872
I01
sS'001000010001111'
p873
I01
sS'1110101011000010'
p874
I01
sS'01000100111'
p875
I00
sS'000001'
p876
I00
sS'101001000000011'
p877
I00
sS'1101111111111111011'
p878
I01
sS'001000010010'
p879
I01
sS'001011000'
p880
I01
sS'1101010111101110'
p881
I01
sS'110000010010011'
p882
I01
sS'1011101101000111110'
p883
I00
sS'00101100001'
p884
I01
sS'1011000000110000010'
p885
I00
sS'010100111100111'
p886
I01
sS'01010001'
p887
I00
sS'110000010100010000'
p888
I00
sS'1100011101'
p889
I00
sS'0101001110001111'
p890
I00
sS'10000100001'
p891
I00
sS'011110001101'
p892
I00
sS'10010011'
p893
I01
sS'111110010101000001'
p894
I01
sS'11000000110'
p895
I01
sS'11000000'
p896
I00
sS'11000001'
p897
I00
sS'111010010101001'
p898
I00
sS'1001011111001'
p899
I01
sS'1111111011110111111'
p900
I01
sS'0001111100100'
p901
I00
sS'000000100000000011'
p902
I01
sS'010101000110110010'
p903
I00
sS'001011110100000110'
p904
I00
sS'100010100000'
p905
I01
sS'1010101011110000'
p906
I01
sS'110101011111111'
p907
I01
sS'1100111000010'
p908
I00
sS'011111001101011111'
p909
I00
sS'010100010100011110'
p910
I00
sS'11011011'
p911
I00
sS'11011010'
p912
I00
sS'1000000000000000010'
p913
I01
sS'110111111100111'
p914
I01
sS'00000000000001111000'
p915
I01
sS'11010011'
p916
I00
sS'1100011010010'
p917
I00
sS'111111001001011101'
p918
I01
sS'0100101011'
p919
I01
sS'0001100001'
p920
I00
sS'00101101000100000'
p921
I00
sS'00010001101'
p922
I01
sS'1000010001111101'
p923
I01
sS'11011011101111101'
p924
I01
sS'0011101110'
p925
I00
sS'100101111'
p926
I01
sS'011000010110101'
p927
I00
sS'00010001100001110'
p928
I00
sS'000101100101000'
p929
I00
sS'01100101001110001'
p930
I00
sS'00010010101001110111'
p931
I01
sS'0100000001000000000'
p932
I01
sS'11111111110111111'
p933
I01
sS'1001000101110'
p934
I00
sS'101011101000'
p935
I01
sS'11111100100'
p936
I01
sS'10101000111010001111'
p937
I00
sS'100001000111101'
p938
I00
sS'101111110011111'
p939
I01
sS'0011000000011100'
p940
I01
sS'011111001'
p941
I01
sS'001101000'
p942
I01
sS'01001011011'
p943
I00
sS'11010110000111001'
p944
I00
sS'0000001110110000'
p945
I01
sS'1111111011'
p946
I00
sS'0100110010000'
p947
I00
sS'10011011100010111101'
p948
I00
sS'1101001'
p949
I00
sS'10000001101'
p950
I01
sS'1111101111110111111'
p951
I01
sS'1100011011111'
p952
I00
sS'0001110001111011100'
p953
I00
sS'0111100'
p954
I00
sS'0001101100000'
p955
I00
sS'1110000111011'
p956
I01
sS'0101100000111010'
p957
I00
sS'01000000000000000000'
p958
I01
sS'100001010000'
p959
I01
sS'010111111100101001'
p960
I00
sS'1011010101'
p961
I00
sS'100111110011110100'
p962
I00
sS'00101000101'
p963
I01
sS'111101101111101111'
p964
I01
sS'0'
p965
I00
sS'101110001'
p966
I00
sS'101110000'
p967
I00
sS'1001011'
p968
I00
sS'100000111100110101'
p969
I01
sS'0011000110101100100'
p970
I01
sS'010010100000'
p971
I01
sS'1111111011111101111'
p972
I01
sS'11000011101'
p973
I00
sS'100010100'
p974
I01
sS'001100011001110'
p975
I00
sS'11101110101'
p976
I00
sS'01100011000000000100'
p977
I00
sS'0010101110'
p978
I01
sS'101001100101'
p979
I01
sS'1010010101'
p980
I01
sS'1000101101000'
p981
I01
sS'0001001'
p982
I01
sS'1111111110111111011'
p983
I01
sS'11010111011'
p984
I00
sS'00000000111001101'
p985
I00
sS'0110011111001010'
p986
I00
sS'00010000100000010'
p987
I00
sS'11011001001111101'
p988
I00
sS'1000000101100000'
p989
I00
sS'111010010000011010'
p990
I00
sS'000110001'
p991
I01
sS'0010000000001111110'
p992
I00
sS'000010101111'
p993
I01
sS'0101011010010100100'
p994
I01
sS'100111010111100100'
p995
I00
sS'01010110110100101'
p996
I00
sS'010100101001'
p997
I00
sS'000100010000000'
p998
I00
sS'000001011110'
p999
I00
sS'001110101'
p1000
I00
sS'001010110101001101'
p1001
I01
sS'10110101100'
p1002
I00
sS'010011001100001'
p1003
I01
sS'00001111'
p1004
I01
sS'00001110'
p1005
I00
sS'1011111111001110'
p1006
I00
sS'001001010011'
p1007
I00
sS'000101010'
p1008
I01
sS'1010000100'
p1009
I00
sS'000000010100010'
p1010
I01
sS'1110100010111111001'
p1011
I00
sS'000100011'
p1012
I01
sS'011001010101011011'
p1013
I00
sS'0111100101'
p1014
I00
sS'10111001000111001'
p1015
I00
sS'11101100001101011101'
p1016
I00
sS'111111111110010'
p1017
I01
sS'0010110101111100'
p1018
I00
sS'001110000101000'
p1019
I00
sS'011110110100011'
p1020
I01
sS'10000010100'
p1021
I00
sS'110100000011100'
p1022
I01
sS'0000001110'
p1023
I00
sS'110010100011'
p1024
I01
sS'110010100010'
p1025
I00
sS'10101000111111010'
p1026
I01
sS'001001010001100100'
p1027
I01
sS'000111100100'
p1028
I00
sS'110111001'
p1029
I01
sS'0110010'
p1030
I00
sS'001001110'
p1031
I00
sS'0110011'
p1032
I00
sS'00110101001'
p1033
I00
sS'111000101'
p1034
I00
sS'001000101000101001'
p1035
I01
sS'00011011100001100001'
p1036
I00
sS'011010'
p1037
I01
sS'1010'
p1038
I01
sS'000110101101010'
p1039
I00
sS'00100100'
p1040
I00
sS'00100101'
p1041
I00
sS'01001111100011001'
p1042
I00
sS'110101001111001011'
p1043
I00
sS'101100010011'
p1044
I01
sS'111101111101000110'
p1045
I01
sS'10110111'
p1046
I00
sS'10110110'
p1047
I00
sS'110001100101'
p1048
I01
sS'0100010000000'
p1049
I01
sS'00100000010'
p1050
I00
sS'0101100001'
p1051
I00
sS'110111110001'
p1052
I00
sS'10000000011011000'
p1053
I00
sS'0111111001'
p1054
I00
sS'110110110001110101'
p1055
I00
sS'010110001111101000'
p1056
I01
sS'100001100110'
p1057
I00
sS'1111111011101'
p1058
I01
sS'11111010110110111'
p1059
I01
sS'11000'
p1060
I00
sS'011100110'
p1061
I00
sS'0000100000110'
p1062
I00
sS'1110100111011011'
p1063
I01
sS'010010000110100'
p1064
I00
sS'011100111'
p1065
I01
sS'1011010010110111'
p1066
I00
sS'00001000000000000'
p1067
I01
sS'10000000100110111'
p1068
I01
sS'0000100100000'
p1069
I01
sS'10110111101110111'
p1070
I01
sS'110001001'
p1071
I00
sS'000001000001100000'
p1072
I01
sS'10100101001'
p1073
I00
sS'00111000'
p1074
I00
sS'0000000001000100'
p1075
I01
sS'111110010110010'
p1076
I01
sS'0111111111101111'
p1077
I01
sS'01000100000'
p1078
I00
sS'111000100'
p1079
I00
sS'1000010100100100'
p1080
I01
sS'11011011010'
p1081
I01
sS'0010001101100'
p1082
I01
sS'1101101011100'
p1083
I01
sS'01010000'
p1084
I00
sS'100111001100'
p1085
I01
sS'10010110011101011010'
p1086
I00
sS'001011000000000'
p1087
I01
sS'101001000'
p1088
I01
sS'10011011'
p1089
I00
sS'100100000110000'
p1090
I00
sS'101111011100010010'
p1091
I00
sS'01110011101110010100'
p1092
I00
sS'000000010001'
p1093
I00
sS'1011001010110000011'
p1094
I00
sS'111101001110111000'
p1095
I00
sS'0011101011110001111'
p1096
I00
sS'1110100010011'
p1097
I00
sS'0011111100010110'
p1098
I00
sS'01000000000000110001'
p1099
I01
sS'1000000000101'
p1100
I00
sS'10010010010'
p1101
I01
sS'1011101001110011110'
p1102
I00
sS'1011001111'
p1103
I00
sS'11101101001'
p1104
I01
sS'100001001'
p1105
I01
sS'0010100'
p1106
I01
sS'101101111'
p1107
I00
sS'01000110101'
p1108
I00
sS'100001010101011111'
p1109
I00
sS'11111010011010000'
p1110
I00
sS'00011101100'
p1111
I00
sS'0100100101011'
p1112
I00
sS'01110011110'
p1113
I01
sS'010110001100'
p1114
I00
sS'0000001000111'
p1115
I00
sS'111000101100'
p1116
I01
sS'0100000100'
p1117
I01
sS'0100000101'
p1118
I00
sS'000101010001011'
p1119
I01
sS'0001001110000010'
p1120
I01
sS'01100001011011100010'
p1121
I00
sS'00111100'
p1122
I01
sS'00111101'
p1123
I00
sS'1010001'
p1124
I00
sS'1010000'
p1125
I01
sS'000010010000001'
p1126
I01
sS'1000010'
p1127
I01
sS'01100110'
p1128
I01
sS'0101000000000'
p1129
I01
sS'001001011001010'
p1130
I01
sS'101010101'
p1131
I00
sS'1011010010'
p1132
I01
sS'1010100000100110110'
p1133
I01
sS'11110111011'
p1134
I00
sS'0000001010'
p1135
I01
sS'111011011'
p1136
I00
sS'000100'
p1137
I00
sS'001010110100011'
p1138
I00
sS'10010011000111001'
p1139
I00
sS'0101100100101101'
p1140
I01
sS'0001011010101'
p1141
I00
sS'0111011001011'
p1142
I01
sS'0101000101'
p1143
I00
sS'000101010000011100'
p1144
I01
sS'11111110111111111'
p1145
I01
sS'11011110010011001111'
p1146
I01
sS'0110111111110101'
p1147
I00
sS'001000110'
p1148
I01
sS'011101011010100'
p1149
I00
sS'01111101'
p1150
I00
sS'01111100'
p1151
I00
sS'111000000'
p1152
I01
sS'111000001'
p1153
I00
sS'000000001001000001'
p1154
I01
sS'01111100111111011'
p1155
I01
sS'0101111100000'
p1156
I00
sS'011011100000'
p1157
I00
sS'11110100110111111'
p1158
I01
sS'0010000100000110000'
p1159
I00
sS'0111011'
p1160
I01
sS'0111010'
p1161
I00
sS'1'
p1162
I00
sS'01111001111'
p1163
I00
sS'110100110'
p1164
I00
sS'110100111'
p1165
I01
sS'0011100100100101111'
p1166
I00
sS'0010010000000'
p1167
I01
sS'1001110001111'
p1168
I01
sS'11100110'
p1169
I00
sS'00101100'
p1170
I00
sS'00000001000011001'
p1171
I01
sS'0100000000001000'
p1172
I01
sS'011000'
p1173
I00
sS'011001'
p1174
I01
sS'100010110'
p1175
I00
sS'11111111101111111'
p1176
I01
sS'1010111011011010011'
p1177
I00
sS'11000011'
p1178
I01
sS'1000000000010000000'
p1179
I01
sS'110111001111'
p1180
I01
sS'0010101110001'
p1181
I00
sS'000010111'
p1182
I00
sS'011100100'
p1183
I00
sS'000010010010'
p1184
I01
sS'0100011100'
p1185
I00
sS'1000100110011'
p1186
I00
sS'0101110100101000100'
p1187
I01
sS'1100100111101011110'
p1188
I00
sS'0010110100111001011'
p1189
I00
sS'1001010'
p1190
I00
sS'110001010'
p1191
I00
sS'111010011'
p1192
I01
sS'00011000010001100'
p1193
I00
sS'0110110011001010011'
p1194
I00
sS'1010100110100011'
p1195
I01
sS'011010110110001100'
p1196
I01
sS'1101111111011011'
p1197
I00
sS'10110101000'
p1198
I00
sS'101010111111001'
p1199
I00
sS'0100101000'
p1200
I00
sS'1011011100111101111'
p1201
I01
sS'0110111111'
p1202
I01
sS'10001000010001101'
p1203
I00
sS'11010001'
p1204
I01
sS'01110011100011010'
p1205
I00
sS'101010110010'
p1206
I01
sS'101101101111'
p1207
I01
sS'0011011100011'
p1208
I00
sS'01000000110'
p1209
I00
sS'11000011100011011'
p1210
I00
sS'011111110100010010'
p1211
I00
sS'00000000000100001011'
p1212
I01
sS'0001110101100001010'
p1213
I01
sS'1010000100000101000'
p1214
I01
sS'011'
p1215
I00
sS'11110110011111101'
p1216
I01
sS'111001001011110111'
p1217
I01
sS'1111011101100010101'
p1218
I00
sS'011110101011'
p1219
I00
sS'1110011111111000111'
p1220
I01
sS'10101101000111011101'
p1221
I00
sS'00010100100011010'
p1222
I00
sS'00110110000'
p1223
I01
sS'1000010001110'
p1224
I01
sS'00011110011110001'
p1225
I00
sS'001010001000011110'
p1226
I00
sS'1010001010'
p1227
I00
sS'011110000111000'
p1228
I00
sS'11111111111111111101'
p1229
I01
sS'101011011111110010'
p1230
I01
sS'10001111011011011100'
p1231
I00
sS'10111111111111111111'
p1232
I01
sS'001000000100010'
p1233
I01
sS'00000000000010000000'
p1234
I01
sS'1111010111000010010'
p1235
I00
sS'100111010010001110'
p1236
I01
sS'0010100110100'
p1237
I01
sS'10100100000'
p1238
I00
sS'0010101101000'
p1239
I01
sS'101110011'
p1240
I01
sS'00110011111100010100'
p1241
I01
sS'101111010'
p1242
I01
sS'010111101011011011'
p1243
I01
sS'011111100'
p1244
I01
sS'1100110111'
p1245
I00
sS'0100000010'
p1246
I01
sS'0000001111000001'
p1247
I01
sS'0011110001001101110'
p1248
I00
sS'010101100011010'
p1249
I00
sS'0000101101111011'
p1250
I00
sS'00010010100110110'
p1251
I01
sS'0111111111110111'
p1252
I01
sS'10101101101010000101'
p1253
I01
sS'00100110000011110111'
p1254
I01
sS'1010101000101001'
p1255
I00
sS'01110100111'
p1256
I01
sS'0110110001100001'
p1257
I00
sS'000110010'
p1258
I01
sS'000110011'
p1259
I00
sS'00010000111'
p1260
I01
sS'11111111011'
p1261
I01
sS'1100000000'
p1262
I01
sS'001110111'
p1263
I01
sS'010100101011'
p1264
I01
sS'0010010000000100'
p1265
I00
sS'0001100010'
p1266
I00
sS'011001011'
p1267
I00
sS'00100000100101011001'
p1268
I01
sS'1111111001'
p1269
I01
sS'111100111001'
p1270
I00
sS'00010111101100011010'
p1271
I01
sS'10000101110101111'
p1272
I01
sS'0000001000100000'
p1273
I01
sS'000110'
p1274
I00
sS'0111100110101100'
p1275
I00
sS'0001101'
p1276
I00
sS'1010100001001000'
p1277
I01
sS'100110011011'
p1278
I00
sS'100010001'
p1279
I01
sS'000100000'
p1280
I00
sS'000100001'
p1281
I00
sS'001100000001'
p1282
I01
sS'00000000100'
p1283
I01
sS'111110010'
p1284
I01
sS'0101101011100100011'
p1285
I00
sS'1010111010'
p1286
I00
sS'1010111011'
p1287
I00
sS'00101011011'
p1288
I00
sS'00011011110'
p1289
I00
sS'10000110110011111001'
p1290
I00
sS'00100110101011110'
p1291
I00
sS'1011111001101100'
p1292
I00
sS'11010110111101111'
p1293
I01
sS'00111111'
p1294
I00
sS'100001001010110100'
p1295
I00
sS'1100101010000100'
p1296
I00
sS'01001110'
p1297
I01
sS'101110100011000111'
p1298
I00
sS'1100111111111'
p1299
I01
sS'11110111'
p1300
I01
sS'100000101100'
p1301
I00
sS'1100100000100'
p1302
I00
sS'0100110100'
p1303
I00
sS'101111000001000'
p1304
I01
sS'1001'
p1305
I01
sS'00100100000'
p1306
I00
sS'101101011100111'
p1307
I00
sS'00100111'
p1308
I01
sS'00100110'
p1309
I00
sS'1110110111111111111'
p1310
I01
sS'00001111110111001110'
p1311
I00
sS'000101011001'
p1312
I00
sS'111001111001011'
p1313
I00
sS'0111100000'
p1314
I00
sS'10101000000'
p1315
I00
sS'10101000001'
p1316
I01
sS'110000000001000'
p1317
I01
sS'000000000000000'
p1318
I01
sS'010001100101'
p1319
I00
sS'00011011'
p1320
I01
sS'0001001001110'
p1321
I01
sS'1100000010000100100'
p1322
I01
sS'111100101111100'
p1323
I00
sS'0101011110001001000'
p1324
I01
sS'11010'
p1325
I00
sS'11011'
p1326
I01
sS'10111011110000011010'
p1327
I00
sS'00111'
p1328
I00
sS'00110'
p1329
I00
sS'1111100101'
p1330
I00
sS'110000010100111011'
p1331
I01
sS'10100101011'
p1332
I00
sS'11100000011'
p1333
I00
sS'00001111010110100000'
p1334
I00
sS'1000110110001100'
p1335
I00
sS'1100111101110011'
p1336
I01
sS'00000110011100001000'
p1337
I00
sS'00010101011110110101'
p1338
I00
sS'000011010010'
p1339
I00
sS'100001101001'
p1340
I00
sS'11101110101111101111'
p1341
I01
sS'0000101110100'
p1342
I01
sS'111101000100110'
p1343
I00
sS'00111001001101000'
p1344
I01
sS'00100101111110000'
p1345
I00
sS'1111110110111010010'
p1346
I00
sS'10100111110000001001'
p1347
I00
sS'01000101100'
p1348
I01
sS'101110110111'
p1349
I01
sS'10011001'
p1350
I01
sS'10011000'
p1351
I00
sS'1110101001'
p1352
I00
sS'01001100010011010110'
p1353
I00
sS'11'
p1354
I00
sS'10'
p1355
I01
sS'11010100000101111101'
p1356
I00
sS'110001011011110'
p1357
I01
sS'011001101010110110'
p1358
I00
sS'111000010110'
p1359
I01
sS'1100100101111100011'
p1360
I01
sS'11100101010010011000'
p1361
I00
sS'1100101110101110'
p1362
I00
sS'100001010'
p1363
I01
sS'11000100111010010'
p1364
I00
sS'11001101011101000000'
p1365
I00
sS'10110110100011011000'
p1366
I01
sS'110011001101101101'
p1367
I00
sS'0000001011001'
p1368
I00
sS'0010110'
p1369
I00
sS'0010111'
p1370
I00
sS'000000001100'
p1371
I00
sS'000000001101'
p1372
I01
sS'0101000000'
p1373
I01
sS'100011100111111110'
p1374
I01
sS'011000010111110000'
p1375
I00
sS'0110110000010110000'
p1376
I00
sS'0111011101010'
p1377
I01
sS'1001000011111010'
p1378
I01
sS'1011010'
p1379
I00
sS'00001111111'
p1380
I01
sS'01100101100'
p1381
I00
sS'1010010'
p1382
I00
sS'1010011'
p1383
I00
sS'110110010111'
p1384
I00
sS'1000100100001'
p1385
I00
sS'111011000'
p1386
I00
sS'111011001'
p1387
I01
sS'000101000001'
p1388
I01
sS'01100101'
p1389
I01
sS'01100100'
p1390
I00
sS'100001000100011011'
p1391
I00
sS'1101001001010110001'
p1392
I00
sS'101010111'
p1393
I01
sS'1000000'
p1394
I00
sS'1000001'
p1395
I01
sS'1100101111011011'
p1396
I01
sS'0111111011111111111'
p1397
I01
sS'0100110100100000101'
p1398
I00
sS'0101000000000000000'
p1399
I01
sS'1000100111'
p1400
I01
sS'0110001001001110'
p1401
I00
sS'10100101101101001'
p1402
I00
sS'0000100000000100'
p1403
I01
sS'1001101111111101011'
p1404
I01
sS'011101011010110'
p1405
I01
sS'000010101101'
p1406
I00
sS'10111111100101010000'
p1407
I00
sS'1111111111011011111'
p1408
I01
sS'11110101011'
p1409
I00
sS'11111111111111110'
p1410
I01
sS'110111111110000110'
p1411
I01
sS'0011010101101111'
p1412
I00
sS'100100000110101110'
p1413
I00
sS'1011011001110'
p1414
I01
sS'111010111101111'
p1415
I01
sS'0011010100000000'
p1416
I00
sS'00001111010101010'
p1417
I00
sS'000110000111'
p1418
I00
sS'01100001000001011010'
p1419
I01
sS'000000'
p1420
I01
sS'101111011111111011'
p1421
I01
sS'1111111011101111'
p1422
I01
sS'0111000'
p1423
I00
sS'0111001'
p1424
I00
sS'0111011101010111'
p1425
I01
sS'011001001010110010'
p1426
I00
sS'00000000001010101'
p1427
I01
sS'0000011010'
p1428
I00
sS'00101000101011000000'
p1429
I00
sS'1101110011111101110'
p1430
I01
sS'00001001111110110'
p1431
I00
sS'010011101100'
p1432
I01
sS'110001111011'
p1433
I00
sS'0101011100110000'
p1434
I00
sS'00011010010011100'
p1435
I01
sS'10010000100000000001'
p1436
I01
sS'110001101111'
p1437
I00
sS'11111110110111001'
p1438
I01
sS'010000110001'
p1439
I00
sS'11001010'
p1440
I01
sS'11100011'
p1441
I00
sS'10000001000001111110'
p1442
I00
sS'0010010010000'
p1443
I00
sS'11001011'
p1444
I00
sS'01111000'
p1445
I01
sS'1111100001110'
p1446
I01
sS'0100100010000'
p1447
I00
sS'1011110001110100'
p1448
I00
sS'000111001001'
p1449
I00
sS'1111000100100'
p1450
I00
sS'011011'
p1451
I00
sS'111000000000000000'
p1452
I01
sS'001111111011'
p1453
I01
sS'11011011011111101'
p1454
I01
sS'001111001110'
p1455
I00
sS'1101011101101111'
p1456
I00
sS'1101010010'
p1457
I01
sS'110001000'
p1458
I01
sS'0011110100000100'
p1459
I00
sS'0101011010'
p1460
I01
sS'0111010100'
p1461
I01
sS'0111001110'
p1462
I00
sS'11100000001101111'
p1463
I00
sS'01001010101111011011'
p1464
I00
sS'011101011000101100'
p1465
I01
sS'00011001010110011000'
p1466
I00
sS'10101101111101000000'
p1467
I01
sS'010100111000101'
p1468
I00
sS'111011'
p1469
I00
sS'10111101110110110111'
p1470
I00
sS'0101101111100001001'
p1471
I00
sS'1100011010'
p1472
I01
sS'1101111110010'
p1473
I00
sS'011010101000'
p1474
I00
sS'001100101000'
p1475
I00
sS'000111101000001001'
p1476
I00
sS'110110110001011'
p1477
I01
sS'0100101'
p1478
I00
sS'0100100'
p1479
I01
sS'0000100100'
p1480
I01
sS'1100010011001100100'
p1481
I01
sS'11110001001000010'
p1482
I01
sS'1110011111111'
p1483
I01
sS'100011111'
p1484
I01
sS'0101100101111'
p1485
I01
sS'110011011010'
p1486
I00
sS'1110111100'
p1487
I00
sS'00111101101'
p1488
I01
sS'11111100010'
p1489
I01
sS'111011011111110'
p1490
I01
sS'11101111111'
p1491
I01
sS'011110010001'
p1492
I01
sS'011110010000'
p1493
I00
sS'1010000010000000001'
p1494
I00
sS'0011011000001'
p1495
I01
sS'1100111100110'
p1496
I01
sS'01010110'
p1497
I01
sS'01010111'
p1498
I00
sS'110011111010100'
p1499
I01
sS'00110111011'
p1500
I01
sS'0100101101'
p1501
I01
sS'1001011110011110101'
p1502
I00
sS'11011110010101001111'
p1503
I01
sS'1110110011'
p1504
I00
sS'0010000111'
p1505
I00
sS'00000100000000000'
p1506
I01
sS'0000010000000001000'
p1507
I01
sS'0111011001100010111'
p1508
I01
sS'0001010000000'
p1509
I01
sS'11101110010111101011'
p1510
I00
sS'1100010010010101010'
p1511
I01
sS'110010100'
p1512
I00
sS'00000000000000100'
p1513
I01
sS'0111111111001010'
p1514
I01
sS'01100001111110000011'
p1515
I01
sS'10101110000'
p1516
I00
sS'00011010100010100'
p1517
I00
sS'11111111111110111'
p1518
I01
sS'101111001'
p1519
I01
sS'01000100101010110111'
p1520
I01
sS'0001110010110'
p1521
I00
sS'110000010001100'
p1522
I00
sS'1111111100'
p1523
I01
sS'111100111100'
p1524
I00
sS'1100110100'
p1525
I01
sS'10100101011001011'
p1526
I00
sS'100111100'
p1527
I00
sS'0010000101001'
p1528
I00
sS'0111111100111'
p1529
I00
sS'11011001001001010110'
p1530
I01
sS'01000010011011100'
p1531
I01
sS'1111010011010'
p1532
I01
sS'11100011011'
p1533
I01
sS'11101000100101001000'
p1534
I00
sS'101000011111'
p1535
I00
sS'000000101010100'
p1536
I00
sS'000010111010100'
p1537
I01
sS'01101001001011011111'
p1538
I00
sS'001011001'
p1539
I00
sS'1101000110100000111'
p1540
I00
sS'101101110100'
p1541
I00
sS'010101101011101'
p1542
I01
sS'11100101111100001001'
p1543
I00
sS'011100000001010100'
p1544
I01
sS'0001100011111111111'
p1545
I00
sS'1100000011'
p1546
I00
sS'00101000011'
p1547
I01
sS'011001000'
p1548
I01
sS'01100110101000101'
p1549
I00
sS'110101100101011'
p1550
I01
sS'0010101101100'
p1551
I00
sS'1111000110011001'
p1552
I00
sS'11111001001'
p1553
I01
sS'01011111111000010'
p1554
I01
sS'0001110'
p1555
I00
sS'0001111'
p1556
I00
sS'11100100101'
p1557
I00
sS'100010010'
p1558
I01
sS'0010010111'
p1559
I01
sS'011111010000101010'
p1560
I01
sS'0100111000110100101'
p1561
I00
sS'0101111011110100'
p1562
I00
sS'010100000000001000'
p1563
I01
sS'1111'
p1564
I00
sS'111110000'
p1565
I00
sS'010001101100001'
p1566
I01
sS'100000000100000010'
p1567
I01
sS'11000111001101011111'
p1568
I01
sS'0010000000100000'
p1569
I01
sS'111111100101111'
p1570
I01
sS'010011001010100000'
p1571
I01
sS'1001001101010'
p1572
I00
sS'1101011010001'
p1573
I00
sS'0010'
p1574
I00
sS'01001101'
p1575
I01
sS'01010011011001101101'
p1576
I00
sS'10101011000'
p1577
I00
sS'011110000011100111'
p1578
I00
sS'001011101111101110'
p1579
I01
sS'1111110111001'
p1580
I00
sS'11110101'
p1581
I00
sS'11110100'
p1582
I00
sS'1111000101'
p1583
I00
sS'1111000100'
p1584
I01
sS'11101011010100001010'
p1585
I01
sS'01101000000010110'
p1586
I00
sS'11111000111011111'
p1587
I01
sS'001110111111'
p1588
I01
sS'01101110'
p1589
I00
sS'1101001100110000101'
p1590
I00
sS'001000111100100100'
p1591
I00
sS'1010101101100000001'
p1592
I01
sS'000011111110'
p1593
I00
sS'11000111100000110010'
p1594
I00
sS'0000110000000'
p1595
I01
sS'100011010010101'
p1596
I00
sS'10000100100101010000'
p1597
I00
sS'1100100'
p1598
I00
sS'10111001101100001'
p1599
I00
sS'001010000000000100'
p1600
I01
sS'1100101'
p1601
I00
sS'1101110111'
p1602
I01
sS'1101110110'
p1603
I00
sS'00000000001'
p1604
I01
sS'000101'
p1605
I00
sS'011010101'
p1606
I00
sS'10010000110111111'
p1607
I01
sS'11011001001'
p1608
I00
sS'1111100111'
p1609
I01
sS'1111100110'
p1610
I00
sS'011111110010010'
p1611
I01
sS'0001010101000'
p1612
I00
sS'10101111110'
p1613
I00
sS'000111100011'
p1614
I01
sS'11101010111010001100'
p1615
I00
sS'1100'
p1616
I01
sS'1101'
p1617
I00
sS'010010111010'
p1618
I01
sS'00100'
p1619
I01
sS'00101'
p1620
I00
sS'10010100010'
p1621
I01
sS'00000011010'
p1622
I00
sS'001100111'
p1623
I00
sS'0011110011101001010'
p1624
I00
sS'01010100101100111111'
p1625
I00
sS'1000000000000100'
p1626
I01
sS'1110010111000'
p1627
I00
sS'011010111010010011'
p1628
I00
sS'00010010000100100'
p1629
I01
sS'000010011'
p1630
I01
sS'010111010001010110'
p1631
I01
sS'000110000100000'
p1632
I01
sS'0011011100'
p1633
I01
sS'1110111110'
p1634
I01
sS'11000101111'
p1635
I01
sS'10001111'
p1636
I00
sS'11101000'
p1637
I01
sS'11101001'
p1638
I00
sS'1011010101110100100'
p1639
I00
sS'100100'
p1640
I00
sS'100101'
p1641
I01
sS'01011010110'
p1642
I00
sS'1011101111111'
p1643
I01
sS'1100101001'
p1644
I01
sS'1111111111111011110'
p1645
I01
sS'10111011010'
p1646
I01
sS'10010010'
p1647
I00
sS'001100010000'
p1648
I01
sS'1111110011001010'
p1649
I00
sS'0101000010'
p1650
I00
sS'0110101110000'
p1651
I00
sS'000111011000011001'
p1652
I00
sS'001111100001'
p1653
I01
sS'0101001011'
p1654
I01
sS'0001000100001'
p1655
I00
sS'00101110000'
p1656
I01
sS'100100010100110'
p1657
I01
sS'1011000'
p1658
I00
sS'1011001'
p1659
I00
sS'01000010110000000'
p1660
I01
sS'10101001001111101'
p1661
I01
sS'010110110'
p1662
I00
sS'1110111001101010'
p1663
I00
sS'10000100111111100110'
p1664
I00
sS'010110111'
p1665
I01
sS'10011100'
p1666
I01
sS'10011101'
p1667
I00
sS'100101011001111001'
p1668
I00
sS'0011101000000'
p1669
I00
sS'101111111001111111'
p1670
I01
sS'1000100101'
p1671
I00
sS'1000100100'
p1672
I00
sS'01001101110100110011'
p1673
I00
sS'01010111001010001011'
p1674
I01
sS'10001101011000110101'
p1675
I01
sS'0101000111011111'
p1676
I00
sS'0101000110001'
p1677
I01
sS'101110101000'
p1678
I01
sS'101101000010'
p1679
I00
sS'001111111111101111'
p1680
I01
sS'00100001010'
p1681
I00
sS'000110000100'
p1682
I01
sS'01110100'
p1683
I01
sS'11100110010001110011'
p1684
I00
sS'001000101010000110'
p1685
I01
sS'00100011011011011100'
p1686
I01
sS'10110110001010100010'
p1687
I00
sS'000001011'
p1688
I01
sS'11101001101111110'
p1689
I00
sS'0010010001000'
p1690
I00
sS'000010'
p1691
I00
sS'1000101'
p1692
I00
sS'1000100'
p1693
I01
sS'111011100'
p1694
I01
sS'11010101011'
p1695
I01
sS'01100000'
p1696
I00
sS'01100001'
p1697
I00
sS'11010101101011101011'
p1698
I01
sS'1011000000011'
p1699
I01
sS'011000100000'
p1700
I01
sS'011100000111011'
p1701
I00
sS'1000010010011010000'
p1702
I00
sS'101110101'
p1703
I01
sS'1000001111'
p1704
I01
sS'001000101000'
p1705
I01
sS'1101011111111'
p1706
I01
sS'100000000001010000'
p1707
I01
sS'111001001110100010'
p1708
I01
sS'1100100011101110011'
p1709
I01
sS'10000101111001100'
p1710
I00
sS'010110010001011'
p1711
I00
sS'111000111'
p1712
I01
sS'101100111011010'
p1713
I01
sS'10101101010011101110'
p1714
I00
sS'01111010'
p1715
I00
sS'1010101001101100'
p1716
I01
sS'000111001010'
p1717
I00
sS'110001011111101'
p1718
I00
sS'101111001110'
p1719
I00
sS'0111101'
p1720
I01
sS'110101001110'
p1721
I00
sS'0001000001000000'
p1722
I01
sS'011001001010100'
p1723
I01
sS'00000110101'
p1724
I01
sS'1101111111111111110'
p1725
I01
sS'111101111001110000'
p1726
I00
sS'0111110100110000'
p1727
I01
sS'111110001'
p1728
I01
sS'0000000100110000011'
p1729
I01
sS'1110011'
p1730
I01
sS'1110010'
p1731
I00
sS'0000111001110'
p1732
I00
sS'010010000100'
p1733
I01
sS'111101010'
p1734
I01
sS'10110011111'
p1735
I00
sS'000100000000101000'
p1736
I01
sS'00010101111011110101'
p1737
I00
sS'1110100100111'
p1738
I01
sS'1100010001'
p1739
I00
sS'01010110101'
p1740
I00
sS'0100110'
p1741
I00
sS'0111111101101100'
p1742
I01
sS'1111101111111111101'
p1743
I01
sS'111111100111'
p1744
I00
sS'111001100001011'
p1745
I00
sS'1101111010110011'
p1746
I01
sS'1011101010010001'
p1747
I01
sS'011001000001101'
p1748
I01
sS'1011110011110011101'
p1749
I00
sS'11010010'
p1750
I01
sS'101010101000100001'
p1751
I00
sS'10001101111'
p1752
I01
sS'0111010001'
p1753
I01
sS'1111110011010101111'
p1754
I01
sS'010110111111010110'
p1755
I01
sS'10111111101'
p1756
I00
sS'11111001110011111'
p1757
I01
sS'0100101011011100'
p1758
I01
sS'101111100'
p1759
I01
sS'0100101010'
p1760
I00
sS'011101000000'
p1761
I00
sS'010001111'
p1762
I00
sS'110011010101010'
p1763
I00
sS'000011000000010'
p1764
I01
sS'110010110'
p1765
I00
sS'110010111'
p1766
I01
sS'111110111001'
p1767
I01
sS'00110100011'
p1768
I00
sS'11011110000011110101'
p1769
I00
sS'101010100010111'
p1770
I00
sS'10000100000101110'
p1771
I00
sS'11000010111111100110'
p1772
I00
sS'11011100000011111001'
p1773
I00
sS'10101011100001001000'
p1774
I00
sS'0100001110101'
p1775
I00
sS'11100110000'
p1776
I00
sS'100100001010011'
p1777
I01
sS'01000010011'
p1778
I01
sS'111010000000100001'
p1779
I01
sS'101101110'
p1780
I01
sS'010011010110'
p1781
I01
sS'111111100010001010'
p1782
I00
sS'111111101111101101'
p1783
I01
sS'111100111110'
p1784
I01
sS'100001110110100'
p1785
I00
sS'1110100010111111'
p1786
I01
sS'1100000001011'
p1787
I01
sS'00011011011111101'
p1788
I00
sS'00010001010000001'
p1789
I01
sS'01001011001001000111'
p1790
I00
sS'00000000000000001'
p1791
I01
sS'0010000000010'
p1792
I01
sS'101011001'
p1793
I00
sS'10001100110001101001'
p1794
I00
sS'1101011'
p1795
I01
sS'1101010'
p1796
I00
sS'1100110000011001'
p1797
I00
sS'11111000010110001001'
p1798
I01
sS'10010111110'
p1799
I01
sS'010100010001101'
p1800
I01
sS'10001001010011101011'
p1801
I01
sS'010010110001'
p1802
I00
sS'0110000110'
p1803
I00
sS'000000001001100'
p1804
I01
sS'1010000100100010'
p1805
I01
sS'0101100001011'
p1806
I00
sS'0010101101110'
p1807
I00
sS'0110101001000111'
p1808
I01
sS'11111000001111010101'
p1809
I00
sS'1011001111110011011'
p1810
I00
sS'11000000001000001000'
p1811
I01
sS'1100110001'
p1812
I01
sS'001101010110100111'
p1813
I00
sS'00110011100'
p1814
I00
sS'001011000000'
p1815
I01
sS'1000010101'
p1816
I00
sS'0001011000110011'
p1817
I00
sS'111000'
p1818
I01
sS'1011111111'
p1819
I00
sS'01010100'
p1820
I00
sS'1001001'
p1821
I00
sS'110111111110111'
p1822
I00
sS'0100001111101'
p1823
I00
sS'01001111000010000'
p1824
I00
sS'11011110001010010000'
p1825
I00
sS'11001111101010011011'
p1826
I01
sS'1011001000001'
p1827
I01
sS'000010000000100010'
p1828
I01
sS'111111011110101111'
p1829
I01
sS'00010011010011011011'
p1830
I01
sS'00000000010'
p1831
I01
sS'0011000010010000110'
p1832
I00
sS'010010011010'
p1833
I00
sS'111110100'
p1834
I01
sS'11110010101'
p1835
I01
sS'11110010100'
p1836
I00
sS'011010111'
p1837
I01
sS'01000010000000110'
p1838
I01
sS'1000000001000100'
p1839
I00
sS'0110000001000011'
p1840
I01
sS'11101001111101111'
p1841
I01
sS'1110'
p1842
I00
sS'0011001010001'
p1843
I01
sS'001110101010110'
p1844
I00
sS'1110111111110101001'
p1845
I01
sS'10101111100'
p1846
I01
sS'100100011001010'
p1847
I01
sS'011110010011110110'
p1848
I00
sS'101110000011'
p1849
I01
sS'11110001'
p1850
I00
sS'011101001101111'
p1851
I00
sS'01110011101010011100'
p1852
I00
sS'00000000100000000'
p1853
I01
sS'110000111011001100'
p1854
I01
sS'10011101110'
p1855
I01
sS'0100000110000101'
p1856
I01
sS'10011110001110100110'
p1857
I00
sS'10001101'
p1858
I01
sS'10001100'
p1859
I00
sS'1110111101'
p1860
I01
sS'101110111011111'
p1861
I01
sS'1001010101'
p1862
I01
sS'1011010010110011'
p1863
I00
sS'0011100101110100'
p1864
I01
sS'010010100'
p1865
I01
sS'1101000010001101'
p1866
I00
sS'00000000000000000100'
p1867
I01
sS'100000010000100000'
p1868
I01
sS'111100011011'
p1869
I00
sS'00110000001100101101'
p1870
I00
sS'110000111001'
p1871
I01
sS'11101011'
p1872
I00
sS'111010'
p1873
I00
sS'1111011011'
p1874
I01
sS'1111011010'
p1875
I00
sS'1101110111111111'
p1876
I01
sS'0010111111111101011'
p1877
I01
sS'11100010'
p1878
I01
sS'111011111001'
p1879
I01
sS'10111111000'
p1880
I01
sS'10111111001'
p1881
I00
sS'01100100000'
p1882
I00
sS'01001100'
p1883
I00
sS'0011101101101'
p1884
I01
sS'00001'
p1885
I01
sS'10101100000'
p1886
I01
sS'00011000011001010'
p1887
I00
sS'001100101'
p1888
I00
sS'1111100011010111'
p1889
I01
sS'11011011011110001'
p1890
I00
sS'111111010'
p1891
I00
sS'00000111111010010010'
p1892
I00
sS'1100100010111010'
p1893
I01
sS'101100101000'
p1894
I00
sS'10011010111'
p1895
I01
sS'001101101101'
p1896
I00
sS'01101001001'
p1897
I00
sS'0000000000010100000'
p1898
I01
sS'011011001010'
p1899
I01
sS'1100101000001010101'
p1900
I01
sS'001101011000111'
p1901
I00
sS'0011011000'
p1902
I00
sS'1110101111'
p1903
I01
sS'11011110011010100'
p1904
I01
sS'0000000001001'
p1905
I01
sS'00101111010011110011'
p1906
I00
sS'110001110100'
p1907
I01
sS'1000000001000000111'
p1908
I01
sS'1111111111111101011'
p1909
I01
sS'01110110001001100001'
p1910
I00
sS'0101011010000100000'
p1911
I00
sS'00011110'
p1912
I01
sS'00011111'
p1913
I00
sS'1111111101111011'
p1914
I01
sS'1101010110'
p1915
I00
sS'101101001100011000'
p1916
I00
sS'0100100110111010'
p1917
I01
sS'100100001000101'
p1918
I00
sS'000000100110'
p1919
I01
sS'01000100101000010011'
p1920
I01
sS'01111110100'
p1921
I01
sS'1000100101011111'
p1922
I00
sS'1001111110000'
p1923
I00
sS'0101100000110'
p1924
I01
sS'0101111000101111011'
p1925
I00
sS'011010100'
p1926
I00
sS'101000110001101'
p1927
I00
sS'101101000110010010'
p1928
I00
sS'0000011111'
p1929
I01
sS'00000000001000000'
p1930
I01
sS'010110000000'
p1931
I01
sS'01100011'
p1932
I01
sS'01100010'
p1933
I00
sS'0010000010'
p1934
I01
sS'000001001'
p1935
I00
sS'101110010110111011'
p1936
I01
sS'1000111'
p1937
I00
sS'01011001111'
p1938
I01
sS'1111011001101111101'
p1939
I01
sS'00110111110011110'
p1940
I00
sS'11110111111'
p1941
I01
sS'101111011111110'
p1942
I01
sS'11000001001101101'
p1943
I00
sS'11111001011110111111'
p1944
I01
sS'11001110111010010'
p1945
I01
sS'0111111100101111101'
p1946
I01
sS'0010110101100101000'
p1947
I01
sS'110100010'
p1948
I00
sS'000001001001101010'
p1949
I01
sS'011110110111111'
p1950
I01
sS'11100110000110110010'
p1951
I01
sS'1100111100010110'
p1952
I00
sS'0110'
p1953
I01
sS'0111'
p1954
I00
sS'101000100000'
p1955
I01
sS'0101011100111'
p1956
I01
sS'010111111'
p1957
I00
sS'010111110'
p1958
I01
sS'1111110100110'
p1959
I00
sS'11111011111111111'
p1960
I01
sS'11010010101110111'
p1961
I00
sS'101111101110111011'
p1962
I00
sS'11011111111111111111'
p1963
I01
sS'10101111110011100'
p1964
I00
sS'0111110'
p1965
I01
sS'0111111'
p1966
I00
sS'100001010110111100'
p1967
I01
sS'110100110010101000'
p1968
I00
sS'110011101111010001'
p1969
I00
sS'10000000000'
p1970
I01
sS'111101111101111110'
p1971
I01
sS'01000001001000110'
p1972
I00
sS'111011101011111'
p1973
I01
sS'000001100010101'
p1974
I00
sS'000001100010100'
p1975
I00
sS'0000000110000'
p1976
I01
sS'0000111111'
p1977
I00
sS'0101001100011'
p1978
I00
sS'01001100010000011110'
p1979
I00
sS'10011001101'
p1980
I00
sS'1110000'
p1981
I00
sS'1110001'
p1982
I00
sS'000100100000010'
p1983
I01
sS'11111111111110111111'
p1984
I01
sS'110101000110111101'
p1985
I00
sS'1001100101010000'
p1986
I00
sS'0111101111111'
p1987
I01
sS'0110101010001'
p1988
I00
sS'111101001'
p1989
I01
sS'01110001100010001'
p1990
I01
sS'0001000001000'
p1991
I01
sS'10001110000000001010'
p1992
I00
sS'011100101100111101'
p1993
I00
sS'0101001000010111010'
p1994
I01
sS'00011001110000101100'
p1995
I00
sS'1011101111001011110'
p1996
I00
sS'101010010110101000'
p1997
I00
sS'0111000000101111'
p1998
I01
sS'1000111111000000101'
p1999
I00
sS'10001101100'
p2000
I00
sS'10100000001011100010'
p2001
I01
sS'0110111010011110100'
p2002
I01
sS'000010010100'
p2003
I01
sS'101100101110111001'
p2004
I00
sS'110101000100010110'
p2005
I00
sS'110001111'
p2006
I01
sS'00110110010100010001'
p2007
I00
sS'1101011101'
p2008
I00
sS'11001011101'
p2009
I01
sS'100101001011011'
p2010
I00
sS'100100011011'
p2011
I01
sS'010001100'
p2012
I01
sS'010001101'
p2013
I00
sS'1111101111110111'
p2014
I01
sS'101111110'
p2015
I00
sS'101111111'
p2016
I00
sS'1101101010011111'
p2017
I01
sS'11011001011010101110'
p2018
I00
sS'010000000110110'
p2019
I00
sS'0101111001'
p2020
I00
sS'0100100110011000111'
p2021
I00
sS'111011111011011111'
p2022
I01
sS'011000010011'
p2023
I00
sS'100000010100000'
p2024
I01
sS'1011100001011011'
p2025
I00
sS'00000101011'
p2026
I01
sS'0100111110001010000'
p2027
I01
sS'11101101111011000010'
p2028
I00
sS'010100110'
p2029
I00
sS'01101011111111011'
p2030
I01
sS'1001101000001'
p2031
I01
sS'001000000010001'
p2032
I01
sS'01001111101001000'
p2033
I00
sS'1111001100000101'
p2034
I01
sS'000010001101101'
p2035
I01
sS'101101100'
p2036
I00
sS'1001101111101101'
p2037
I01
sS'01100011010'
p2038
I00
sS'101111010100'
p2039
I00
sS'111101001110'
p2040
I00
sS'00110101000110101100'
p2041
I00
sS'01111101000'
p2042
I00
sS'00111110'
p2043
I00
sS'000000001001001'
p2044
I01
sS'00011110110'
p2045
I00
sS'10100110100010100100'
p2046
I00
sS'1110010000'
p2047
I00
sS'0100101011101000011'
p2048
I00
sS'01001101111001111011'
p2049
I01
sS'0001100000'
p2050
I01
sS'001000110010101'
p2051
I01
sS'1101101011100100100'
p2052
I00
sS'1011000011100'
p2053
I00
sS'100011100011010'
p2054
I00
sS'111111001111'
p2055
I00
sS'010000101110000101'
p2056
I00
sS'001110001111010101'
p2057
I00
sS'000110011011100'
p2058
I00
sS'1111001011010'
p2059
I01
sS'10101100'
p2060
I01
sS'10101101'
p2061
I00
sS'01101101110'
p2062
I01
sS'11001110001'
p2063
I00
sS'000000011000010'
p2064
I01
sS'010001111110'
p2065
I00
sS'11001110111000011001'
p2066
I00
sS'0001000010000'
p2067
I01
sS'1101101100'
p2068
I00
sS'00000110010100110'
p2069
I00
sS'001011011000'
p2070
I00
sS'0100001110001'
p2071
I01
sS'01110110100110100011'
p2072
I00
sS'1000110'
p2073
I00
sS'110111010011'
p2074
I00
sS'01011110100110110'
p2075
I01
sS'01111100101010000011'
p2076
I01
sS'11011111001'
p2077
I00
sS'000001100'
p2078
I00
sS'11111010'
p2079
I00
sS'11111011'
p2080
I01
sS'1111001010'
p2081
I00
sS'011111100100101000'
p2082
I01
sS'01010010110011101000'
p2083
I00
sS'1100110011'
p2084
I00
sS'110000101000010'
p2085
I00
sS'1011011010'
p2086
I00
sS'1010101100'
p2087
I01
sS'0010000101110'
p2088
I01
sS'110001010110110'
p2089
I00
sS'1000110001010'
p2090
I01
sS'0011010100100100'
p2091
I00
sS'0111111110110100111'
p2092
I01
sS'101100101000010'
p2093
I01
sS'1010100010000111101'
p2094
I00
sS'1001001010100011010'
p2095
I01
sS'000101001001'
p2096
I00
sS'01000000111111100'
p2097
I00
sS'1010101000'
p2098
I00
sS'0111110111111'
p2099
I01
sS'00110010000001000'
p2100
I01
sS'0000110011110011'
p2101
I01
sS'011101110001'
p2102
I00
sS'011001111'
p2103
I01
sS'000100000001100000'
p2104
I01
sS'10111101111111111010'
p2105
I01
sS'1100000010100'
p2106
I00
sS'1101000'
p2107
I00
sS'0001000'
p2108
I00
sS'0111001110001100'
p2109
I01
sS'01010011001010111100'
p2110
I01
sS'00000110'
p2111
I00
sS'00000111'
p2112
I00
sS'1110111101110110'
p2113
I00
sS'110111101'
p2114
I00
sS'110111100'
p2115
I01
sS'001110001110'
p2116
I01
sS'0001000110010'
p2117
I00
sS'10010100100110111100'
p2118
I01
sS'01011111110010010'
p2119
I01
sS'10101100110110110'
p2120
I01
sS'011110000010101011'
p2121
I01
sS'00011110100000001'
p2122
I00
sS'001010100000000000'
p2123
I01
sS'11101100'
p2124
I00
sS'111100100001011101'
p2125
I00
sS'11010101001101000'
p2126
I00
sS'01001011'
p2127
I01
sS'01001010'
p2128
I00
sS'0011001010010'
p2129
I01
sS'011000111001'
p2130
I01
sS'111111'
p2131
I01
sS'111110'
p2132
I00
sS'1010001110101'
p2133
I00
sS'1111110111110'
p2134
I01
sS'0001111010'
p2135
I01
sS'00100101101011010011'
p2136
I01
sS'00011000100100100'
p2137
I00
sS'1100101001101001'
p2138
I01
sS'1111000010'
p2139
I01
sS'11110011'
p2140
I00
sS'11110010'
p2141
I00
sS'10101111111110111101'
p2142
I01
sS'1001011100'
p2143
I01
sS'001100100'
p2144
I01
sS'011100000011100100'
p2145
I00
sS'000010010111010001'
p2146
I00
sS'11110110001101111111'
p2147
I00
sS'000111010010'
p2148
I00
sS'0110001101000'
p2149
I01
sS'110001111001111010'
p2150
I00
sS'001000110011100'
p2151
I01
sS'0010100110'
p2152
I00
sS'0111000101010000'
p2153
I00
sS'001000001010010'
p2154
I00
sS'01010000100'
p2155
I00
sS'1101000010001110'
p2156
I00
sS'1110000011000010'
p2157
I00
sS'1100101000'
p2158
I00
sS'001011101'
p2159
I00
sS'01001111'
p2160
I00
sS'01100001100001110010'
p2161
I00
sS'100100111001101'
p2162
I00
sS'110101011010000111'
p2163
I00
sS'001000111011000'
p2164
I01
sS'0000000000001001'
p2165
I01
sS'0000000000101000000'
p2166
I01
sS'11100001'
p2167
I01
sS'11100000'
p2168
I00
sS'1111010001'
p2169
I00
sS'11011100000'
p2170
I00
sS'001001110110110'
p2171
I00
sS'1010111000010000010'
p2172
I00
sS'00010101100011010000'
p2173
I01
sS'00010'
p2174
I01
sS'110010111000101'
p2175
I00
sS'0011000000'
p2176
I01
sS'0011000001'
p2177
I00
sS'10000001'
p2178
I00
sS'101100111011110001'
p2179
I00
sS'011101110101111100'
p2180
I01
sS'111111101001111'
p2181
I01
sS'01111111011001111'
p2182
I01
sS'010111101111111'
p2183
I01
sS'010010000010000'
p2184
I01
sS'1101111100011'
p2185
I00
sS'00010001000001010000'
p2186
I01
sS'01010101000'
p2187
I01
sS'011111011101000010'
p2188
I00
sS'000010101'
p2189
I01
sS'000010100'
p2190
I00
sS'101001001101'
p2191
I01
sS'010001000110100101'
p2192
I00
sS'10001001'
p2193
I00
sS'1010000100010011'
p2194
I00
sS'0010011100011'
p2195
I00
sS'0110010110100101'
p2196
I01
sS'1110010011000011'
p2197
I01
sS'0011011010'
p2198
I01
sS'01100011101110010'
p2199
I00
sS'10100111110100001011'
p2200
I00
sS'000001001101'
p2201
I00
sS'0000000111'
p2202
I00
sS'111101110101010'
p2203
I00
sS'11001111'
p2204
I00
sS'1111101010100000'
p2205
I01
sS'00011101'
p2206
I01
sS'0101110'
p2207
I00
sS'010101100110001111'
p2208
I00
sS'1010100100100100100'
p2209
I00
sS'000101110011'
p2210
I01
sS'010010000100100'
p2211
I00
sS'01111010011101100011'
p2212
I00
sS'111111101011111110'
p2213
I01
sS'001111100111'
p2214
I00
sS'010100011010'
p2215
I00
sS'1011111110'
p2216
I01
sS'1000010100'
p2217
I00
sS'0000011101'
p2218
I00
sS'0001010100101100'
p2219
I00
sS'1111101011'
p2220
I01
sS'0111110111011001010'
p2221
I00
sS'1111001101011000010'
p2222
I00
sS'000011111000'
p2223
I00
sS'0000110000000000000'
p2224
I01
sS'001111100011111010'
p2225
I00
sS'00000100011'
p2226
I00
sS'000000000100000'
p2227
I00
sS'000010111111101'
p2228
I01
sS'11010100101111101011'
p2229
I01
sS'11110111111111111111'
p2230
I01
sS'0010111101'
p2231
I00
sS'11001010010'
p2232
I00
sS'101000101111010'
p2233
I00
sS'000111010'
p2234
I00
sS'10011001110001101'
p2235
I00
sS'001110001001111'
p2236
I00
sS'001110100'
p2237
I00
sS'0101'
p2238
I01
sS'0100'
p2239
I00
sS'1101110111111'
p2240
I01
sS'00111100111'
p2241
I01
sS'0010011000001001'
p2242
I01
sS'0000101000000'
p2243
I01
sS'0011110100'
p2244
I01
sS'110011001100'
p2245
I01
sS'1111111010111'
p2246
I01
sS'110111001000000'
p2247
I01
sS'1100111111111111'
p2248
I01
sS'101011101111'
p2249
I01
sS'0011000111000110111'
p2250
I00
sS'1100101010100'
p2251
I00
sS'0011111100011111'
p2252
I01
sS'0111111111011'
p2253
I01
sS'000001101'
p2254
I01
sS'101000000100111'
p2255
I01
sS'1110000100110011110'
p2256
I00
sS'01100010101'
p2257
I00
sS'111111111011101110'
p2258
I01
sS'1000110011100001'
p2259
I00
sS'001011110110100'
p2260
I00
sS'0111100000100001101'
p2261
I01
sS'111110011111110'
p2262
I01
sS'10010110110'
p2263
I00
sS'101000101010100'
p2264
I01
sS'00000000000000010'
p2265
I01
sS'11010011011001000101'
p2266
I01
sS'00011011011'
p2267
I00
sS'11010110110'
p2268
I01
sS'00010100000'
p2269
I00
sS'11011111101'
p2270
I00
sS'01110010111'
p2271
I01
sS'0110010110011'
p2272
I00
sS'00111000100101000'
p2273
I00
sS'0001000000010'
p2274
I01
sS'1010001101'
p2275
I01
sS'0000110110010'
p2276
I01
sS'01011000100000000'
p2277
I01
sS'10110111010010100000'
p2278
I00
sS'01001011100'
p2279
I00
sS'000101111001010'
p2280
I00
sS'101011010011111'
p2281
I00
sS'1101011111'
p2282
I01
sS'0101011111111'
p2283
I00
sS'00000110010'
p2284
I00
sS'00010111110000000'
p2285
I00
sS'00110100100001000111'
p2286
I00
sS'111110000110111001'
p2287
I00
sS'1010001010001101101'
p2288
I00
sS'111101110111111101'
p2289
I01
sS'1101111111001011011'
p2290
I01
sS'00010011100100100101'
p2291
I00
sS'1011100'
p2292
I00
sS'110000011100000'
p2293
I00
sS'101110100111111010'
p2294
I01
sS'111101100'
p2295
I01
sS'1110101'
p2296
I01
sS'01001111000011001'
p2297
I00
sS'10011'
p2298
I00
sS'10010'
p2299
I00
sS'0111111111111011111'
p2300
I01
sS'11000111001111101101'
p2301
I01
sS'010010010000'
p2302
I01
sS'000111000000100111'
p2303
I00
sS'1000111110000001'
p2304
I00
sS'1110001100'
p2305
I01
sS'10001101000'
p2306
I01
sS'1000101111010100'
p2307
I01
sS'10100011111'
p2308
I01
sS'010100111110111'
p2309
I00
sS'01010011'
p2310
I01
sS'100100101011110011'
p2311
I00
sS'11101000010100010001'
p2312
I00
sS'10101001101110111'
p2313
I00
sS'01011010'
p2314
I01
sS'01011011'
p2315
I00
sS'010111111010'
p2316
I00
sS'10111100011100101101'
p2317
I00
sS'1001101110101011000'
p2318
I00
sS'1010111011001110'
p2319
I00
sS'0000011110010010'
p2320
I00
sS'1100011101110'
p2321
I01
sS'111000001000001'
p2322
I00
sS'1111101111111011111'
p2323
I01
sS'10101110'
p2324
I00
sS'100000011'
p2325
I01
sS'100000010100100'
p2326
I00
sS'0111100101100'
p2327
I00
sS'1010011101001110'
p2328
I00
sS'001000'
p2329
I00
sS'01111011101100011'
p2330
I00
sS'1000110111010010101'
p2331
I00
sS'101000000001'
p2332
I01
sS'001010000111000010'
p2333
I01
sS'000010001101000'
p2334
I00
sS'101101000'
p2335
I00
sS'01110101111011111'
p2336
I01
sS'111100101111001'
p2337
I00
sS'0110110111111011'
p2338
I00
sS'11000010000000001000'
p2339
I01
sS'101001100'
p2340
I00
sS'11111001'
p2341
I00
sS'11111000'
p2342
I00
sS'00000000000001000000'
p2343
I01
sS'010101110000100101'
p2344
I00
sS'10010101110100001'
p2345
I00
sS'11100011110'
p2346
I01
sS'1011011000'
p2347
I01
sS'0100111011110000101'
p2348
I00
sS'0110110110'
p2349
I00
sS'1100111000'
p2350
I01
sS'1111010011110'
p2351
I00
sS'111001101111'
p2352
I01
sS'100001110101011111'
p2353
I00
sS'000011111011001'
p2354
I00
sS'10010010101'
p2355
I00
sS'000001101000000000'
p2356
I01
sS'1101101'
p2357
I01
sS'1101100'
p2358
I00
sS'1000101011000001'
p2359
I00
sS'011001011110100100'
p2360
I01
sS'010010001000'
p2361
I01
sS'100111111'
p2362
I00
sS'100110001100'
p2363
I00
sS'01101111010011000010'
p2364
I01
sS'11001110111'
p2365
I00
sS'00000101'
p2366
I00
sS'00000100'
p2367
I01
sS'111101101'
p2368
I00
sS'110110111100001010'
p2369
I00
sS'00011'
p2370
I00
sS'010101101011'
p2371
I00
sS'1100010000011100'
p2372
I00
sS'11000100010'
p2373
I01
sS'01001010101110010111'
p2374
I00
sS'1000010000111'
p2375
I01
sS'010100100'
p2376
I01
sS'01010011000'
p2377
I01
sS'1110100'
p2378
I00
sS'000110101101'
p2379
I01
sS'1010101001'
p2380
I01
sS'0100000001000'
p2381
I01
sS'10110111100010110010'
p2382
I00
sS'1001101111'
p2383
I00
sS'0100101110011000'
p2384
I00
sS'100001100000001010'
p2385
I00
sS'01111101100011101011'
p2386
I01
sS'0101100000100000010'
p2387
I01
sS'1100110011101'
p2388
I01
sS'01001011010111101'
p2389
I01
sS'100010000000010000'
p2390
I01
sS'01111010001001011'
p2391
I00
sS'011011000110011100'
p2392
I01
sS'111000000101111100'
p2393
I01
sS'11001001'
p2394
I01
sS'1101001110101111'
p2395
I01
sS'0011001110011'
p2396
I00
sS'1100100101'
p2397
I01
sS'010010'
p2398
I00
sS'010011'
p2399
I01
sS'10100100010'
p2400
I01
sS'0001001000'
p2401
I01
sS'01011111101111011'
p2402
I01
sS'0011000010010000000'
p2403
I00
sS'11111111111111101111'
p2404
I01
sS'0100011101100101001'
p2405
I00
sS'101011001100111'
p2406
I01
sS'001011111'
p2407
I01
sS'000000010001100'
p2408
I01
sS'100111001111011'
p2409
I00
sS'01001011100111111'
p2410
I00
sS'00010001110'
p2411
I01
sS'1011'
p2412
I00
sS'1010100'
p2413
I00
sS'0100100111101'
p2414
I00
sS'11111111111111101'
p2415
I01
sS'011110111001'
p2416
I00
sS'001111110'
p2417
I01
sS'110000'
p2418
I00
sS'110000011110'
p2419
I01
sS'1011011000000'
p2420
I01
sS'010110001'
p2421
I00
sS'010000010000000010'
p2422
I01
sS'1101011101111000110'
p2423
I00
sS'1010101'
p2424
I00
sS'100000000000000110'
p2425
I01
sS'1111011111110111'
p2426
I01
sS'001000000110'
p2427
I01
sS'000010110'
p2428
I01
sS'1010100000100010'
p2429
I01
sS'1110111010'
p2430
I00
sS'10001011'
p2431
I01
sS'1111100011100001'
p2432
I00
sS'1001101001101110001'
p2433
I00
sS'0000000101'
p2434
I01
sS'011011001110010'
p2435
I00
sS'1110111111110111'
p2436
I01
sS'110110001101100101'
p2437
I00
sS'10111111111'
p2438
I01
sS'001110010101110'
p2439
I00
sS'1011100110110'
p2440
I01
sS'101101010111000'
p2441
I00
sS'11100100'
p2442
I01
sS'11100101'
p2443
I00
sS'000001010010000'
p2444
I01
sS'0100010001000001'
p2445
I00
sS'00100101111001111100'
p2446
I00
sS'0010000100000101'
p2447
I00
sS'10111100101'
p2448
I01
sS'0011101000'
p2449
I00
sS'00001101010001110'
p2450
I01
sS'11101110010101001'
p2451
I01
sS'0010111000'
p2452
I00
sS'0010111001'
p2453
I01
sS'101101000110110'
p2454
I00
sS'00100111001101110100'
p2455
I01
sS'0011111'
p2456
I01
sS'000000000101010000'
p2457
I01
sS'01000101100101010'
p2458
I01
sS'1000101111110'
p2459
I01
sS'101111010000011111'
p2460
I00
sS'0101101110'
p2461
I00
sS'00101110'
p2462
I01
sS'111111101101110'
p2463
I01
sS'000011'
p2464
I00
sS'1110101010001'
p2465
I00
sS'0101010101'
p2466
I01
sS'10011010001'
p2467
I00
sS'10011010000'
p2468
I01
sS'10101110111111000111'
p2469
I00
sS'0101101001010'
p2470
I00
sS'00000100000'
p2471
I01
sS'001001101100110'
p2472
I00
sS'11010011010110101100'
p2473
I00
sS'110111111010100011'
p2474
I01
sS'111111111111'
p2475
I01
sS'0000100001000000'
p2476
I01
sS'0000100001101'
p2477
I00
sS'00000000000100000000'
p2478
I01
sS'1101111111011'
p2479
I01
sS'0001000010'
p2480
I01
sS'0001000011'
p2481
I00
sS'01011100111'
p2482
I01
sS'00011001'
p2483
I00
sS'11100001010001000001'
p2484
I01
sS'01111110010'
p2485
I01
sS'000111000'
p2486
I01
sS'000110110101100'
p2487
I00
sS'1100111001011'
p2488
I01
sS'01010010'
p2489
I00
sS'0000111011011100'
p2490
I01
sS'0000010000001000000'
p2491
I01
sS'0000011000'
p2492
I01
sS'100011110101110'
p2493
I01
sS'10001100110'
p2494
I00
sS'01100100000010111011'
p2495
I00
sS'10000110101'
p2496
I00
sS'10000110100'
p2497
I01
sS'00'
p2498
I00
sS'0010000100'
p2499
I01
sS'0010000101'
p2500
I00
sS'000001110'
p2501
I01
sS'000001111'
p2502
I00
sS'011011000110111'
p2503
I01
sS'00010011001'
p2504
I01
sS'1101110010010'
p2505
I00
sS'110001011010111'
p2506
I01
sS'11010101'
p2507
I00
sS'111000010001010'
p2508
I01
sS'00101111'
p2509
I00
sS'11111000101001001'
p2510
I00
sS'00111000111101001'
p2511
I00
sS'0000'
p2512
I00
sS'01'
p2513
I01
sS'111011001010'
p2514
I00
sS'1000000010'
p2515
I01
sS'11001'
p2516
I00
sS'00101101001100100'
p2517
I01
sS'11011111111'
p2518
I01
sS'010111001'
p2519
I00
sS'1000100111011001'
p2520
I01
sS'00011010001'
p2521
I01
sS'1000011011000100'
p2522
I00
sS'0010100011111010100'
p2523
I00
sS'00110110'
p2524
I01
sS'01100001100111000'
p2525
I01
sS'101111011111011111'
p2526
I01
sS'0111111111101'
p2527
I01
sS'110111010010101100'
p2528
I00
sS'0100111110011'
p2529
I01
sS'00101101110001011'
p2530
I00
sS'01001000000010000010'
p2531
I01
sS'111001011011100110'
p2532
I00
sS'00011111100011100'
p2533
I00
sS'0001000110110101'
p2534
I00
sS'00001110001111001'
p2535
I00
sS'10000'
p2536
I01
sS'10001'
p2537
I00
sS'00000011000001000100'
p2538
I01
sS'1110111'
p2539
I00
sS'0000111001011'
p2540
I00
sS'101100101111111101'
p2541
I00
sS'00111100111111100001'
p2542
I00
sS'11110111111111111'
p2543
I01
sS'001110011111011100'
p2544
I00
sS'1001010111110'
p2545
I01
sS'11001111111101101'
p2546
I01
sS'0110010110101001001'
p2547
I00
sS'010110110111111001'
p2548
I01
sS'0110011010'
p2549
I01
sS'0000000110101011011'
p2550
I01
sS'0101010'
p2551
I00
sS'010001100101001'
p2552
I01
sS'10110001001000011'
p2553
I01
sS'1110010100'
p2554
I01
sS'100011011'
p2555
I00
sS'100011010'
p2556
I00
sS'11101111010'
p2557
I00
sS'1111011111011'
p2558
I01
sS'11110000101110100'
p2559
I00
sS'1110111101010'
p2560
I00
sS'100010011'
p2561
I00
sS'000100000011111010'
p2562
I00
sS'01000011111'
p2563
I00
sS'001101010101110101'
p2564
I00
sS'10111010010001011'
p2565
I00
sS'00100100000000011'
p2566
I01
sS'0100111010001111'
p2567
I00
sS'1011001100010100'
p2568
I00
sS'00000010000000000'
p2569
I01
sS'01011001'
p2570
I01
sS'011111001001'
p2571
I00
sS'100100000111'
p2572
I00
sS'0010100110010'
p2573
I01
sS'001'
p2574
I00
sS'000'
p2575
I01
sS'01011011101111111111'
p2576
I01
sS'0111000101010100111'
p2577
I00
sS'100000000'
p2578
I00
sS'10101111'
p2579
I00
sS'01001001110110001011'
p2580
I01
sS'101011010011100'
p2581
I00
sS'011101000001100101'
p2582
I00
sS'00110000111101110011'
p2583
I00
sS'111000110'
p2584
I00
sS'011110100101001'
p2585
I00
sS'1111001100000000'
p2586
I00
sS'1000110001111111'
p2587
I00
sS'0101110010'
p2588
I01
sS'011100101011100'
p2589
I00
sS'100100110'
p2590
I00
sS'11101000111'
p2591
I01
sS'000001100000101001'
p2592
I00
sS'000100101'
p2593
I01
sS'000100100'
p2594
I00
sS'1100111000110001'
p2595
I01
sS'1000100001110'
p2596
I01
sS'1110001001'
p2597
I01
sS'101101010'
p2598
I00
sS'101101011'
p2599
I01
sS'0000101000110000001'
p2600
I01
sS'01001010000110100001'
p2601
I01
sS'010110010'
p2602
I00
sS'0000010110100000010'
p2603
I01
sS'11011011110000101001'
p2604
I00
sS'101001111'
p2605
I01
sS'111011111001111'
p2606
I01
sS'100001101'
p2607
I00
sS'0011001110'
p2608
I01
sS'0001111011001'
p2609
I00
sS'0111001110000'
p2610
I00
sS'01010010000000001000'
p2611
I01
sS'001100110'
p2612
I00
sS'000101011'
p2613
I00
sS'0110011011110011011'
p2614
I00
sS'00101101111'
p2615
I01
sS'1101101100011111110'
p2616
I00
sS'11001101100'
p2617
I00
sS'01010101010001110'
p2618
I00
sS'0011010000'
p2619
I00
sS'100101101100110'
p2620
I00
sS'1101110'
p2621
I01
sS'1101111'
p2622
I00
sS'01110000'
p2623
I00
sS'0000000001000100000'
p2624
I01
sS'1101010000001111'
p2625
I01
sS'1011000001101111000'
p2626
I00
sS'101011010111'
p2627
I00
sS'01101000'
p2628
I00
sS'00000'
p2629
I00
sS'111001010101100'
p2630
I00
sS'01010000010101000'
p2631
I00
sS'11011100101011001'
p2632
I01
sS'11111111111111110111'
p2633
I01
sS'00100000011'
p2634
I00
sS'0011100011000000010'
p2635
I00
sS'11001010100'
p2636
I00
sS'0101000100000110100'
p2637
I00
sS'1111001100'
p2638
I00
sS'11111100'
p2639
I00
sS'11111101'
p2640
I01
sS'010010101110'
p2641
I01
sS'00000000000100000'
p2642
I01
sS'00110001100'
p2643
I01
sS'010010110010110'
p2644
I00
sS'11111000111'
p2645
I00
sS'1011011100'
p2646
I00
sS'11001110'
p2647
I00
sS'1100111100'
p2648
I00
sS'0000010001111010'
p2649
I00
sS'001010'
p2650
I00
sS'001011'
p2651
I01
sS'1011100110111001'
p2652
I00
sS'1111001011001111'
p2653
I01
sS'010111100010'
p2654
I01
sS'011000110111001'
p2655
I00
sS'0110000000000'
p2656
I01
sS'0001000100100011'
p2657
I01
sS'10001011000101000111'
p2658
I00
sS'0000101110001'
p2659
I01
sS'110101101010'
p2660
I00
sS'1111111110110111'
p2661
I01
sS'0001111011011001'
p2662
I00
sS'1011000110'
p2663
I01
sS'100000100111'
p2664
I00
sS'1101001110101100'
p2665
I00
sS'00000000'
p2666
I00
sS'00000001'
p2667
I01
sS'000010110011'
p2668
I00
sS'00000000100000000000'
p2669
I01
sS'111010111100000'
p2670
I00
sS'11010101011000101001'
p2671
I01
sS'10100100100011011'
p2672
I00
sS'011010011011000'
p2673
I00
sS'10011010'
p2674
I01
sS'1100100100000010'
p2675
I01
sS'01000001011000000'
p2676
I01
sS'010100101100100101'
p2677
I00
sS'00111110100000000'
p2678
I00
sS'111110001111'
p2679
I01
sS'010001000000111'
p2680
I00
sS'00111001101111000100'
p2681
I01
sS'10000000000000000000'
p2682
I01
sS'010110110100001000'
p2683
I00
sS'111101010011001101'
p2684
I00
sS'1100101001101111'
p2685
I00
sS'0000100'
p2686
I00
sS'01100010000000010'
p2687
I01
sS'11000111011'
p2688
I01
sS'0100011011011100110'
p2689
I00
sS'001111100'
p2690
I00
sS'001111101'
p2691
I01
sS'001010100101100010'
p2692
I00
sS'1101101100001'
p2693
I00
sS'1101111111100100'
p2694
I01
sS'00100101011010110'
p2695
I00
sS'1101100110000'
p2696
I00
sS'01011001011011110001'
p2697
I00
sS'010000111101100100'
p2698
I00
sS'1101101111011'
p2699
I00
sS'11001100'
p2700
I01
sS'11001101'
p2701
I00
sS'0000111'
p2702
I00
sS'0000110'
p2703
I01
sS'0010100000'
p2704
I01
sS'000000000010100100'
p2705
I01
sS'1110110111'
p2706
I01
sS'11000010'
p2707
I00
sS'001000000000000000'
p2708
I00
sS'1001111101001010'
p2709
I00
sS'01010000011'
p2710
I01
sS'0100100000000'
p2711
I01
sS'0011111011'
p2712
I00
sS'100010110100100'
p2713
I01
sS'01010010001'
p2714
I01
sS'1111010111'
p2715
I01
sS'01001001'
p2716
I00
sS'010001'
p2717
I00
sS'010000'
p2718
I00
sS'11001110001011111'
p2719
I00
sS'0011001101010'
p2720
I00
sS'1011100111'
p2721
I00
sS'0000111101'
p2722
I01
sS'01110010'
p2723
I01
sS'01110011'
p2724
I00
sS'1101011110101000'
p2725
I00
sS'0011101011'
p2726
I00
sS'0011101010'
p2727
I01
sS'00101101'
p2728
I01
sS'0011101'
p2729
I00
sS'11111110110101011'
p2730
I01
sS'001001011011001'
p2731
I00
sS'1100011000000110'
p2732
I00
sS'100110000101'
p2733
I00
sS'1111111110111101111'
p2734
I01
sS'0110000011100111'
p2735
I01
sS'1001110110'
p2736
I00
sS'000111110101010'
p2737
I00
sS'0011100000000'
p2738
I00
sS'0011011011110110100'
p2739
I01
sS'10101011110011000100'
p2740
I01
sS'10110011001000111001'
p2741
I01
sS'0110001010011010'
p2742
I00
sS'0000000000'
p2743
I00
sS'1011001011111'
p2744
I00
sS'00110110101001000000'
p2745
I01
sS'1100001111'
p2746
I00
sS'1111101110111'
p2747
I01
sS'00011010'
p2748
I00
sS'0001000001'
p2749
I01
sS'1110110101100'
p2750
I01
sS'001100000100000'
p2751
I01
sS'1111101110'
p2752
I01
sS'1010111111111'
p2753
I01
sS'10100001110110010'
p2754
I00
sS'111100101111'
p2755
I01
sS'000111101001101'
p2756
I00
sS'110111000011110000'
p2757
I01
sS'10100010000110000'
p2758
I00
sS'1111101101111011011'
p2759
I00
sS'0000011011'
p2760
I00
sS'010101001100'
p2761
I00
sS'1000101001001000000'
p2762
I01
sS'011001010'
p2763
I00
sS'1100001000'
p2764
I00
sS'0110000100110010'
p2765
I00
sS'0000000000100100'
p2766
I01
sS'1010001001001011001'
p2767
I01
sS'111010011000001'
p2768
I00
sS'1000010010'
p2769
I00
sS'11111101011011110'
p2770
I01
sS'100001000000010'
p2771
I01
sS'00110000110000010101'
p2772
I01
sS'1110011111111111111'
p2773
I01
sS'1011101110111'
p2774
I00
sS'1111101111101111'
p2775
I01
sS'01000100110'
p2776
I01
sS'1011010101010111111'
p2777
I00
sS'1110000111000000'
p2778
I00
sS'1100101010001111'
p2779
I00
sS'11010111'
p2780
I00
sS'0110101011111101'
p2781
I01
sS'101010101001101'
p2782
I00
sS'11110011110011111'
p2783
I01
sS'0010111011'
p2784
I00
sS'100001000'
p2785
I00
sS'1100000010010000'
p2786
I00
sS'1001111101100110'
p2787
I00
sS'01110100001'
p2788
I00
sS'0111111110111111111'
p2789
I01
sS'0011'
p2790
I01
sS'0100011011100110101'
p2791
I00
sS'1000000001'
p2792
I01
sS'010111011'
p2793
I01
sS'100000001111100'
p2794
I01
sS'0111000100'
p2795
I00
sS'000011000110'
p2796
I00
sS'0011100111001'
p2797
I00
sS'0110011111'
p2798
I00
sS'01011010111'
p2799
I01
sS'0011110010'
p2800
I01
sS'0111111111110'
p2801
I01
sS'0011000100001100'
p2802
I01
sS'00110101'
p2803
I01
sS'1001000111'
p2804
I01
sS'1111000101111111010'
p2805
I00
sS'0011010111001001'
p2806
I01
sS'001011000001110'
p2807
I01
sS'01101010111'
p2808
I01
sS'1100110000111'
p2809
I00
sS'00010011100'
p2810
I01
sS'000111001010111101'
p2811
I00
sS'1010101010000'
p2812
I01
sS'0111111011111'
p2813
I01
sS'110001011110'
p2814
I00
sS'1011010011000010'
p2815
I00
sS'110110011'
p2816
I01
sS'001101000100001010'
p2817
I01
sS'10101000110101010'
p2818
I00
sS'111001111111011111'
p2819
I01
sS'110011101110'
p2820
I00
sS'1101010110011'
p2821
I01
sS'0000000011001010010'
p2822
I01
sS'001110001'
p2823
I00
sS'1101001110001'
p2824
I00
sS'00001000000'
p2825
I01
sS'00001000001'
p2826
I00
sS'0000100010001010000'
p2827
I00
sS'1011111101111'
p2828
I01
sS'1011111101110'
p2829
I00
sS'1000000010010110000'
p2830
I01
sS'00101111010010110100'
p2831
I01
sS'100000000100001000'
p2832
I01
sS'0111111111111111110'
p2833
I01
sS'100011000'
p2834
I01
sS'11111011100111010'
p2835
I00
sS'11010000011'
p2836
I00
sS'001010111010'
p2837
I01
sS'01000101110'
p2838
I00
sS'0111011011111110'
p2839
I00
sS'11110011101110100'
p2840
I00
sS'000001010010110100'
p2841
I01
sS'1110101111111'
p2842
I01
sS'1100011011101010'
p2843
I00
sS'1101100011'
p2844
I00
sS'1010010111100'
p2845
I00
sS'1101111111011011000'
p2846
I00
sS'0110100111110000110'
p2847
I00
sS'1111111111100'
p2848
I01
sS'1010110010'
p2849
I01
sS'1101001100010'
p2850
I00
sS'0010010100001111001'
p2851
I01
sS'010'
p2852
I00
sS'01000000'
p2853
I01
sS'10101'
p2854
I00
sS'10100'
p2855
I00
sS'000010011000000000'
p2856
I01
sS'010111111110111111'
p2857
I01
sS'010100010'
p2858
I01
sS'110001100'
p2859
I00
sS'011111100011'
p2860
I00
sS'1001101001'
p2861
I01
sS'011101100'
p2862
I00
sS'011101101'
p2863
I01
sS'0110110011101011011'
p2864
I00
sS'100100100'
p2865
I01
sS'100100101'
p2866
I00
sS'010110000'
p2867
I01
sS'000011100111001110'
p2868
I01
sS'0100010101'
p2869
I00
sS'011001011000111'
p2870
I00
sS'000100110'
p2871
I01
sS'1111011011111'
p2872
I01
sS'1110010001'
p2873
I01
sS'0111010000'
p2874
I00
sS'0100001000000'
p2875
I01
sS'1000011'
p2876
I00
sS'10001000000101011100'
p2877
I01
sS'1111010000000111'
p2878
I01
sS'1101101001110010'
p2879
I00
sS'00011001110000000'
p2880
I00
sS'10101001111100011111'
p2881
I01
sS'01100111100'
p2882
I00
sS'1001101111101001'
p2883
I00
sS'001101001100110'
p2884
I00
sS'00100011010'
p2885
I01
sS'1001000101011'
p2886
I00
sS'00011111011'
p2887
I01
sS'00011111010'
p2888
I00
sS'0000000100100000000'
p2889
I01
sS'11001101110'
p2890
I01
sS'1111011011101100'
p2891
I01
sS'01100111'
p2892
I00
sS'100000101'
p2893
I01
sS'0000000000000110000'
p2894
I01
sS'100111011110010100'
p2895
I00
sS'11111011111'
p2896
I01
sS'10111001100011011'
p2897
I01
sS'101010011000111'
p2898
I00
sS'0101111'
p2899
I01
sS'1111011111110001101'
p2900
I01
sS'00000010000'
p2901
I01
sS'11011111010000101'
p2902
I01
sS'10111111000001100111'
p2903
I00
sS'10110000000000100000'
p2904
I01
sS'111001001000000'
p2905
I00
sS'0000101111'
p2906
I01
sS'0010001011111010111'
p2907
I01
sS'00111100110'
p2908
I00
sS'00111001000010111'
p2909
I00
sS'11111111'
p2910
I00
sS'11111110'
p2911
I01
sS'1111001111'
p2912
I01
sS'1000000100000'
p2913
I01
sS'10010011110111100111'
p2914
I01
sS'1000001110001'
p2915
I01
sS'111100011100000000'
p2916
I00
sS'1011101'
p2917
I01
sS'1011100100'
p2918
I01
sS'00111011100011100'
p2919
I00
sS'111111010011111'
p2920
I01
sS'00110001110'
p2921
I00
sS'1100111111'
p2922
I01
sS'011011111111011'
p2923
I01
sS'010010000000001'
p2924
I01
sS'00010000000000000000'
p2925
I01
sS'01101010'
p2926
I01
sS'01101011'
p2927
I00
sS'10110001011001111011'
p2928
I00
sS'010111111011'
p2929
I01
sS'0111110100111110000'
p2930
I01
sS'11111111101101011'
p2931
I00
sS'001001'
p2932
I00
sS'1111011111101'
p2933
I01
sS'1011011111'
p2934
I01
sS'100110010'
p2935
I00
sS'11101111111111111'
p2936
I01
sS'01000001'
p2937
I00
sS'110011110'
p2938
I01
sS'0110100011'
p2939
I01
sS'101011001011000'
p2940
I00
sS'110110100110101'
p2941
I01
sS'000000001100000001'
p2942
I01
sS'0001000101010'
p2943
I00
sS'0011100111101101000'
p2944
I00
sS'00001010100110110'
p2945
I01
sS'110010001010'
p2946
I00
sS'11000100100'
p2947
I01
sS'0101010011011010101'
p2948
I00
sS'001001001010111'
p2949
I00
sS'01000110'
p2950
I00
sS'100111110100111000'
p2951
I00
sS'10111011011000100010'
p2952
I01
sS'1111110110'
p2953
I01
sS'0110110111001'
p2954
I01
sS'10000000000000000'
p2955
I01
sS'1110010101001'
p2956
I00
sS'1110010101000'
p2957
I00
sS'00011111100010101101'
p2958
I00
sS'11111110000101100001'
p2959
I00
sS'0000000000011000000'
p2960
I01
sS'001000101110011110'
p2961
I01
sS'100110011'
p2962
I00
sS'11110'
p2963
I01
sS'00100000000000000'
p2964
I01
sS'00100000000'
p2965
I01
sS'000010011000111101'
p2966
I00
sS'01000100010000111'
p2967
I00
sS'1001001101110010'
p2968
I01
sS'00000000010010110'
p2969
I01
sS'1111000'
p2970
I00
sS'11111001011111100001'
p2971
I01
sS'001110100110'
p2972
I01
sS'0000100010000'
p2973
I01
sS'010100'
p2974
I00
sS'010101'
p2975
I01
sS'0010100011'
p2976
I00
sS'000011011001110'
p2977
I00
sS'110111000011'
p2978
I00
sS'1010000000000'
p2979
I01
sS'0000111110010'
p2980
I00
sS'0000100000000000001'
p2981
I01
sS'00001000010011000'
p2982
I01
sS'01101111111'
p2983
I00
sS'0000101'
p2984
I01
sS'010001101110'
p2985
I01
sS'1011100011110'
p2986
I01
sS'100100010011'
p2987
I00
sS'110100011111111000'
p2988
I00
sS'1010000010011'
p2989
I01
sS'01100101110110010'
p2990
I00
sS'00101100110011011'
p2991
I00
sS'000010100010'
p2992
I01
sS'0110101010'
p2993
I01
sS'01110001'
p2994
I01
sS'011111001100111'
p2995
I00
sS'100010011111'
p2996
I00
sS'10001110011101001'
p2997
I00
sS'01011111010'
p2998
I01
sS'0011010011111001'
p2999
I00
sS'11101101001011100'
p3000
I01
sS'001101'
p3001
I01
sS'1011101001010'
p3002
I00
sS'11111001000110101111'
p3003
I01
sS'0001110100'
p3004
I00
sS'101011100111'
p3005
I00
sS'001101110000001'
p3006
I01
sS'1001110100'
p3007
I01
sS'00101000'
p3008
I00
sS'0000000011'
p3009
I01
sS'0110001001110'
p3010
I00
sS'100110111101011'
p3011
I00
sS'000100101111'
p3012
I01
sS'000100101110'
p3013
I00
sS'0110000100000000101'
p3014
I01
sS'011011110'
p3015
I01
sS'000000010001001000'
p3016
I01
sS'01010010100'
p3017
I01
sS'1000011111011000'
p3018
I01
sS'1111101101'
p3019
I01
sS'0011001'
p3020
I00
sS'0011000'
p3021
I01
sS'100111100011011100'
p3022
I00
sS'0101010101000010'
p3023
I00
sS'111100101001100010'
p3024
I01
sS'010001100010111010'
p3025
I00
sS'01011000001011101100'
p3026
I00
sS'010001011000001001'
p3027
I01
sS'001011111001101'
p3028
I01
sS'00101001'
p3029
I00
sS'0110100000000011010'
p3030
I00
sS'00111111001110011110'
p3031
I01
sS'11001111100011101'
p3032
I00
sS'0010100011110'
p3033
I00
sS'1011111011'
p3034
I01
sS'11011100100100100'
p3035
I00
sS'11001000'
p3036
I00
sS'110111011010'
p3037
I00
sS'110111011011'
p3038
I01
sS'011001101000001111'
p3039
I01
sS'1011100010110000'
p3040
I00
sS'0011100'
p3041
I00
sS'11111101100'
p3042
I00
sS'11011101010'
p3043
I01
sS'000000000000000000'
p3044
I01
sS'0110100100100'
p3045
I01
sS'10101001111'
p3046
I01
sS'101101111011010'
p3047
I00
sS'101110'
p3048
I00
sS'101111'
p3049
I00
sS'0001000100'
p3050
I01
sS'1101000110101001010'
p3051
I00
sS'01001111001'
p3052
I00
sS'000011000001000'
p3053
I01
sS'1000100110000000000'
p3054
I00
sS'0111000111'
p3055
I00
sS'0111000110'
p3056
I01
sS'1010101010100'
p3057
I00
sS'1101100110010'
p3058
I00
sS'10100000000'
p3059
I00
sS'01001001101101101'
p3060
I00
sS'11111110110'
p3061
I00
sS'11111110111'
p3062
I01
sS'0110101110'
p3063
I00
sS'00101001100'
p3064
I01
sS'10111110100111111111'
p3065
I01
sS'0000000010000000100'
p3066
I01
sS'00100001'
p3067
I00
sS'001010100000'
p3068
I01
sS'10010110'
p3069
I01
sS'10010111'
p3070
I00
sS'11000110001011100100'
p3071
I00
sS'00000100000000000000'
p3072
I01
sS'011000001110101'
p3073
I00
sS'001010111000000111'
p3074
I00
sS'11000010100'
p3075
I01
sS'11000110000000000'
p3076
I01
sS'0011111110010100101'
p3077
I01
sS'0100000110101110100'
p3078
I01
sS'00000001000'
p3079
I01
sS'0001101011000111110'
p3080
I00
sS'0001001010000'
p3081
I00
sS'10101001101010100'
p3082
I00
sS'110011101100'
p3083
I00
sS'1101100101100110'
p3084
I00
sS'1101000110110110001'
p3085
I00
sS'10001001000'
p3086
I00
sS'01000001101101101'
p3087
I00
sS'1110010010110001'
p3088
I01
sS'111010001011110110'
p3089
I00
sS'1011111110111'
p3090
I01
sS'1000001000001001011'
p3091
I00
sS'0000110011000100'
p3092
I01
sS'0010011101111110'
p3093
I00
sS'0001110011'
p3094
I01
sS'00101011100011101'
p3095
I00
sS'1000001110101111101'
p3096
I01
sS'00110000'
p3097
I00
sS'00110001'
p3098
I00
sS'0100001000'
p3099
I01
sS'0111000110101000011'
p3100
I00
sS'111110000101000011'
p3101
I01
sS'01001000000'
p3102
I00
sS'10110000110110000111'
p3103
I01
sS'111110111111111001'
p3104
I01
sS'10011111100'
p3105
I01
sS'110110011001000'
p3106
I00
sS'10100100101'
p3107
I00
sS'010011010010111100'
p3108
I01
sS'1101011000101'
p3109
I00
sS'001010011111111001'
p3110
I00
sS'110000111'
p3111
I00
sS'10111100101010111100'
p3112
I00
sS'0111110111'
p3113
I01
sS'111011110011'
p3114
I01
sS'00010001001001000111'
p3115
I01
sS'01111111110011110'
p3116
I01
sS'001111100101000'
p3117
I00
sS'001001100111110001'
p3118
I01
sS'0111110001001011101'
p3119
I01
sS'111010111101010'
p3120
I00
sS'10110'
p3121
I00
sS'10111'
p3122
I01
sS'011011011100'
p3123
I00
sS'101111111101111101'
p3124
I01
sS'01011'
p3125
I00
sS'01010'
p3126
I00
sS'1010000011011'
p3127
I00
sS'0010010000'
p3128
I01
sS'0010010001'
p3129
I00
sS'101001011100110'
p3130
I00
sS'1010110110100'
p3131
I00
sS'100111101'
p3132
I01
sS'11101011100'
p3133
I01
sS'0100011011101001'
p3134
I01
sS'00011001010000001'
p3135
I00
sS'0011111111101'
p3136
I00
sS'0110111'
p3137
I01
sS'0110110'
p3138
I00
sS'010010001'
p3139
I01
sS'010010000'
p3140
I00
sS'000110100001'
p3141
I00
sS'0100011111100001'
p3142
I01
sS'100001011010001'
p3143
I01
sS'0111010000110100'
p3144
I00
sS'1010010111001'
p3145
I00
sS'11110100000000001110'
p3146
I00
sS'010011110000010010'
p3147
I00
sS'1011010100000'
p3148
I01
sS'1111111111001'
p3149
I01
sS'011101010001100001'
p3150
I00
sS'0101100'
p3151
I00
sS'0101101'
p3152
I00
sS'011000001100010'
p3153
I00
sS'111011110111101'
p3154
I01
sS'010000010111010'
p3155
I01
sS'0010111100100010'
p3156
I00
sS'101110000011110001'
p3157
I01
sS'100000110'
p3158
I01
sS'1001111100110111'
p3159
I01
sS'000000000100010100'
p3160
I01
sS'01011000111000001001'
p3161
I00
sS'11000110001'
p3162
I00
sS'0101101010100101'
p3163
I01
sS'11101000000'
p3164
I01
sS'100111110010010'
p3165
I00
sS'010110101'
p3166
I00
sS'001010101011000'
p3167
I01
sS'0100010000'
p3168
I01
sS'0100010001'
p3169
I00
sS'001101101'
p3170
I00
sS'101010110101011'
p3171
I01
sS'0101000110111100'
p3172
I01
sS'111111100110111'
p3173
I01
sS'00110000100010000000'
p3174
I01
sS'01101001'
p3175
I01
sS'101110110'
p3176
I01
sS'1011110'
p3177
I01
sS'1011111'
p3178
I00
sS'00110000110000010001'
p3179
I00
sS'0010011'
p3180
I00
sS'0111101101001100111'
p3181
I00
sS'0110101101000111101'
p3182
I01
sS'1110010001101000011'
p3183
I00
sS'000101001100'
p3184
I00
sS'101010101100001101'
p3185
I01
sS'0110111010'
p3186
I00
sS'00101101000'
p3187
I01
sS'1000001100101100111'
p3188
I00
sS'001100001'
p3189
I01
sS'001100000'
p3190
I00
sS'01100000010011110'
p3191
I01
sS'01101100011011001'
p3192
I00
sS'0110100001'
p3193
I00
sS'1010101000011011101'
p3194
I00
sS'01001100001010101'
p3195
I01
sS'0000010010001010'
p3196
I00
sS'1001111100111111110'
p3197
I01
sS'0010110000'
p3198
I00
sS'1110110000100010101'
p3199
I00
sS'01100'
p3200
I00
sS'011000010111010'
p3201
I00
sS'110011101'
p3202
I01
sS'11000101101010011011'
p3203
I00
sS'10000110000111101101'
p3204
I01
sS'1100011001000111101'
p3205
I00
sS'00011101100001101'
p3206
I00
sS'10000011100011100'
p3207
I01
sS'001001000000010000'
p3208
I01
sS'111101100111111011'
p3209
I00
sS'101111111111011110'
p3210
I01
sS'111110010110111'
p3211
I00
sS'10111000010001110'
p3212
I00
sS'11011101011001011'
p3213
I00
sS'01101100111100011'
p3214
I01
sS'11000100111'
p3215
I00
sS'101101111011'
p3216
I01
sS'1111101110001001'
p3217
I00
sS'010100101'
p3218
I00
sS'00100001101000010'
p3219
I00
sS'001100'
p3220
I00
sS'1011100001'
p3221
I01
sS'011000111100'
p3222
I01
sS'10101010100001010101'
p3223
I00
sS'100000000100'
p3224
I00
sS'1011110011'
p3225
I00
sS'101110100011'
p3226
I00
sS'1101010011'
p3227
I00
sS'10110010101010101000'
p3228
I00
sS'101110100000'
p3229
I00
sS'0110110101101111'
p3230
I01
sS'010000100111'
p3231
I00
sS'1110101000001010110'
p3232
I00
sS'11000010111101110100'
p3233
I00
sS'0110001'
p3234
I00
sS'1111111110011'
p3235
I01
sS'100010000100000'
p3236
I01
sS'01101101110001111'
p3237
I00
sS'001010010111000001'
p3238
I00
sS'10100011111111111'
p3239
I01
sS'01110101'
p3240
I00
sS'101110111001101'
p3241
I00
sS'000010110100'
p3242
I00
sS'010110'
p3243
I01
sS'110110'
p3244
I00
sS'110111'
p3245
I00
sS'01010010110011001101'
p3246
I01
sS'01010101'
p3247
I01
sS'01100001101'
p3248
I00
sS'11100111101110111111'
p3249
I01
sS'10101011'
p3250
I00
sS'10111110'
p3251
I00
sS'0101001110111111111'
p3252
I01
sS'01010100101101011'
p3253
I00
sS'00010011100010111'
p3254
I00
sS'0011111001'
p3255
I00
sS'11100111001010011111'
p3256
I01
sS'111110001000'
p3257
I01
sS'00000010000000000000'
p3258
I01
sS'1111011101111111111'
p3259
I01
sS'11111111111111011'
p3260
I01
sS'10101010000101001'
p3261
I01
sS'01110110011'
p3262
I01
sS'0011000001001010'
p3263
I01
sS'1111000010000100101'
p3264
I01
sS'0000010110001'
p3265
I00
sS'000100101011000001'
p3266
I01
sS'000010001100'
p3267
I01
sS'1111111110011111'
p3268
I01
sS'1100010110'
p3269
I01
sS'01010111011'
p3270
I01
sS'010110100'
p3271
I00
sS'0011000111111101'
p3272
I00
sS'1000010111111100010'
p3273
I00
sS'0101001101000011'
p3274
I00
sS'011101100011'
p3275
I00
sS'01011110000'
p3276
I00
sS'0000001'
p3277
I00
sS'0000000'
p3278
I00
sS'010110011100'
p3279
I01
sS'1000000010000'
p3280
I01
sS'111111111'
p3281
I01
sS'00010101010010001'
p3282
I00
sS'10001010'
p3283
I00
sS'011100010'
p3284
I00
sS'0100001110'
p3285
I00
sS'0111000010100101'
p3286
I00
sS'011011100'
p3287
I00
sS'0101110011'
p3288
I00
sS'0011101010101111111'
p3289
I00
sS'0010110101'
p3290
I01
sS'0111111111111101'
p3291
I01
sS'110101000010000110'
p3292
I00
sS'0101100001010110000'
p3293
I00
sS'000000011000000100'
p3294
I01
sS'0011011001111100010'
p3295
I00
sS'01100101100001110011'
p3296
I01
sS'001101111101'
p3297
I00
sS'0010000000001000000'
p3298
I01
sS'000000000000'
p3299
I01
sS'010110011111000'
p3300
I00
sS'0011010'
p3301
I00
sS'00100100101'
p3302
I01
sS'00101011'
p3303
I01
sS'110100100110110100'
p3304
I01
sS'000000000011100000'
p3305
I01
sS'0111011111'
p3306
I01
sS'10110101000000100'
p3307
I00
sS'1110101110'
p3308
I00
sS'010001100001101'
p3309
I01
sS'101101'
p3310
I00
sS'101100'
p3311
I01
sS'011011001010110'
p3312
I00
sS'010101000'
p3313
I01
sS'010101001'
p3314
I00
sS'100000111011'
p3315
I01
sS'11111101111'
p3316
I01
sS'110000000000100'
p3317
I01
sS'10111001100'
p3318
I00
sS'1111111'
p3319
I00
sS'00000000000001000'
p3320
I01
sS'1100010'
p3321
I00
sS'001010011000'
p3322
I00
sS'11001001010101011111'
p3323
I00
sS'1101011010'
p3324
I00
sS'011000100000111110'
p3325
I00
sS'100110000101111001'
p3326
I01
sS'100010111000110111'
p3327
I00
sS'10010101100000011000'
p3328
I01
sS'11000110011111011'
p3329
I00
sS'00000000101'
p3330
I00
sS'101010010'
p3331
I00
sS'001001111'
p3332
I00
sS'1100001110'
p3333
I01
sS'1101101010011'
p3334
I01
sS'100111000011'
p3335
I01
sS'100111000010'
p3336
I00
sS'0110001100110'
p3337
I00
sS'1100000'
p3338
I01
sS'1110100101'
p3339
I00
sS'11000010010100000000'
p3340
I00
sS'10010101'
p3341
I01
sS'10010100'
p3342
I00
sS'100101100001001000'
p3343
I01
sS'10001011100101100100'
p3344
I00
sS'01010100010110110'
p3345
I00
sS'0001101101011111'
p3346
I00
sS'01001001000000100'
p3347
I01
sS'0010100110000000001'
p3348
I01
sS'01110001001101101'
p3349
I00
sS'0000110100'
p3350
I00
sS'0100111000100001'
p3351
I00
sS'1111101100001011101'
p3352
I00
sS'0100010110'
p3353
I00
sS'1000001010010001011'
p3354
I00
sS'000000101100'
p3355
I01
sS'010100001000'
p3356
I01
sS'0000011000000001011'
p3357
I01
sS'01000111011'
p3358
I00
sS'01110001110011111'
p3359
I00
sS'1111110101011100100'
p3360
I00
sS'10000111110110001'
p3361
I00
sS'0001110001'
p3362
I00
sS'11111111011111111'
p3363
I01
sS'00000010100001001000'
p3364
I01
sS'0100001010'
p3365
I00
sS'110101101001110'
p3366
I01
sS'11010011011011110110'
p3367
I01
sS'10111101111110101'
p3368
I01
sS'10011100001010011011'
p3369
I01
sS'100000001000011000'
p3370
I00
sS'00110011'
p3371
I01
sS'1100011000'
p3372
I00
sS'101111011000101010'
p3373
I00
sS'1100110000001'
p3374
I01
sS'10010001001101000'
p3375
I00
sS'1110000100101101'
p3376
I01
sS'1110111110111'
p3377
I01
sS'110000100'
p3378
I01
sS'110000101'
p3379
I00
sS'1000000101101'
p3380
I01
sS'111011110001011011'
p3381
I01
sS'10110001100111001111'
p3382
I00
sS'01111011'
p3383
I00
sS'010111010100111'
p3384
I01
sS'0101011110111'
p3385
I00
sS'01001100111110110001'
p3386
I00
sS'101100010010100011'
p3387
I00
sS'011001101100'
p3388
I01
sS'11010000111101100011'
p3389
I00
sS'00100010111100010'
p3390
I01
sS'110100010100000'
p3391
I00
sS'10001001100'
p3392
I01
sS'0101010010001011'
p3393
I00
sS'1101011011'
p3394
I00
sS'0010010100110001100'
p3395
I00
sS'1001110010001111'
p3396
I00
sS'111111111110111001'
p3397
I01
sS'01000'
p3398
I01
sS'01001'
p3399
I00
sS'1111111011111111101'
p3400
I01
sS'111001111111110'
p3401
I01
sS'0000110001000110'
p3402
I01
sS'0010111010101111111'
p3403
I00
sS'01000010'
p3404
I00
sS'001100001110'
p3405
I00
sS'0110100'
p3406
I00
sS'1001110100010100100'
p3407
I01
sS'000111101100111'
p3408
I01
sS'110110000001111100'
p3409
I01
sS'10000010'
p3410
I00
sS'10000011'
p3411
I00
sS'0011110'
p3412
I00
sS'010010010'
p3413
I01
sS'11111011010000101'
p3414
I01
sS'010011011'
p3415
I00
sS'110011011111'
p3416
I01
sS'0001010000011'
p3417
I00
sS'1101111111111011'
p3418
I01
sS'1010101011001101001'
p3419
I00
sS'01000011'
p3420
I00
sS'1010011011100'
p3421
I00
sS'01000111'
p3422
I01
sS'0000000101000000000'
p3423
I01
sS'0110111100110010110'
p3424
I01
sS'00000001110010000'
p3425
I01
sS'00101100001101111101'
p3426
I00
sS'000011000000010000'
p3427
I01
sS'011001001010101110'
p3428
I01
sS'0010010010011110'
p3429
I00
sS'001001011110'
p3430
I01
sS'10101011101001010'
p3431
I00
sS'1001100111110011100'
p3432
I01
sS'0101111110'
p3433
I00
sS'0010101011'
p3434
I01
sS'0111101111'
p3435
I01
sS'0000010101011000'
p3436
I01
sS'1010110110001'
p3437
I00
sS'001000111101'
p3438
I01
sS'1101100110'
p3439
I00
sS'1111010111010100'
p3440
I00
sS'11101000101101101'
p3441
I01
sS'01100010000100000'
p3442
I01
sS'00100011111100110'
p3443
I00
sS'0000000000001010000'
p3444
I01
sS'00110110101010110'
p3445
I00
sS'00100100111'
p3446
I00
sS'001100010'
p3447
I01
sS'110001100110000'
p3448
I01
sS'00100011100'
p3449
I01
sS'101001100111011'
p3450
I01
sS'0000001100010110000'
p3451
I01
sS'0101001010'
p3452
I00
sS'1111111111001111111'
p3453
I01
sS'011101000001'
p3454
I00
sS'10101101111100111100'
p3455
I01
sS'1010000000000000'
p3456
I01
sS'011101011010'
p3457
I00
sS'10010101000'
p3458
I01
sS'0101001'
p3459
I00
sS'0101000'
p3460
I01
sS'0000101000'
p3461
I01
sS'01110001110011000110'
p3462
I01
sS'101001110101100101'
p3463
I00
sS'01100010000110010'
p3464
I00
sS'0101011111001110'
p3465
I00
sS'011100100011'
p3466
I01
sS'0000101101110'
p3467
I00
sS'010101001101111'
p3468
I01
sS'011000100'
p3469
I01
sS'001110110101001111'
p3470
I00
sS'111111010111101'
p3471
I01
sS'00001000010000011'
p3472
I01
sS'1011100011'
p3473
I00
sS'110101111'
p3474
I00
sS'110101110'
p3475
I01
sS'011110000110'
p3476
I01
sS'01101100'
p3477
I01
sS'01101101'
p3478
I00
sS'001111'
p3479
I00
sS'001110'
p3480
I01
sS'00000000011100001000'
p3481
I01
sS'100000000110'
p3482
I01
sS'100111101001011'
p3483
I01
sS'1000000110100'
p3484
I00
sS'01010101101'
p3485
I00
sS'00011000011100100110'
p3486
I00
sS'1011110000'
p3487
I01
sS'0010100101010000000'
p3488
I01
sS'0110100101'
p3489
I01
sS'01101111'
p3490
I00
sS'0000010010010000101'
p3491
I01
sS'000001000001101'
p3492
I00
sS'1110111110111011'
p3493
I00
sS'011101011000111000'
p3494
I01
sS'110011001'
p3495
I00
sS'01000001110'
p3496
I01
sS'010001110101'
p3497
I01
sS'0010110001101'
p3498
I00
sS'101001000111011011'
p3499
I00
sS'10010101110101101100'
p3500
I00
sS'10110111010'
p3501
I01
sS'1111000110011010100'
p3502
I00
sS'11111110111111111111'
p3503
I01
sS'00110100100110100'
p3504
I01
sS'10101001010010011'
p3505
I00
sS'110101'
p3506
I00
sS'110100'
p3507
I01
sS'001010001100011'
p3508
I01
sS'00110111010110010'
p3509
I00
sS'10110100010'
p3510
I00
sS'01101010111110011001'
p3511
I00
sS'0110011001111010100'
p3512
I00
sS'001010000100100000'
p3513
I00
sS'100010000100'
p3514
I01
sS'0101010101000'
p3515
I01
sS'10111010111'
p3516
I00
sS'10111100'
p3517
I00
sS'1111101101111000101'
p3518
I00
sS'111110110001'
p3519
I00
sS'01111110110001111000'
p3520
I00
sS'1111111011111010100'
p3521
I01
sS'11100010111'
p3522
I01
sS'11100010110'
p3523
I00
sS'0000000000000010010'
p3524
I01
sS'000110100100111001'
p3525
I00
sS'1111101100100111'
p3526
I01
sS'101110100100'
p3527
I01
sS'010000000100100'
p3528
I01
sS'1001111001001010000'
p3529
I01
sS'1000111101110'
p3530
I01
sS'11000001110'
p3531
I00
sS'111100101011'
p3532
I00
sS'0001000010010000110'
p3533
I01
sS'1111111011000011'
p3534
I01
sS'1001000011'
p3535
I00
sS'00110111110101100111'
p3536
I01
sS'1001001011'
p3537
I01
sS'0100101111111'
p3538
I00
sS'1000000110'
p3539
I00
sS'11101011110001100'
p3540
I01
sS'10101100100010111'
p3541
I00
sS'01010111001'
p3542
I00
sS'000001101010'
p3543
I00
sS'0000010'
p3544
I00
sS'0000011'
p3545
I01
sS'111001'
p3546
I00
sS'0000000000100000010'
p3547
I01
sS'0101110011010000100'
p3548
I01
sS'111111100'
p3549
I00
sS'1000101100010'
p3550
I01
sS'110110110'
p3551
I01
sS'1010110101'
p3552
I00
sS'101101100010011'
p3553
I00
sS'10100101'
p3554
I01
sS'00011000'
p3555
I00
sS'01011001010001001'
p3556
I01
sS'10100100'
p3557
I00
sS'01110111'
p3558
I00
sS'01110110'
p3559
I00
sS'011110000'
p3560
I00
sS'00100011111100101010'
p3561
I01
sS'101111111010'
p3562
I01
sS'1000000000100101100'
p3563
I01
sS'100010011001'
p3564
I00
sS'10111101111101101'
p3565
I01
sS'0010101011011'
p3566
I00
sS'00110111'
p3567
I00
sS'0001011100010'
p3568
I01
sS'00100000'
p3569
I01
sS'01011110101'
p3570
I01
sS'101100011'
p3571
I00
sS'111101101111111101'
p3572
I01
sS'100110111000'
p3573
I01
sS'1001110010'
p3574
I01
sS'0001100000010001010'
p3575
I01
sS'1111010100111101111'
p3576
I01
sS'001010010011'
p3577
I00
sS'111100'
p3578
I00
sS'011011000'
p3579
I00
sS'111101'
p3580
I00
sS'0000010000010'
p3581
I01
sS'110100101001'
p3582
I01
sS'001010110'
p3583
I00
sS'010101010'
p3584
I00
sS'101011110'
p3585
I01
sS'111000111111111111'
p3586
I01
sS'000011110011100010'
p3587
I00
sS'01001000'
p3588
I00
sS'0001111001'
p3589
I01
sS'11110101001101100011'
p3590
I00
sS'101011110011011'
p3591
I00
sS'11100110111010110010'
p3592
I00
sS'0110111111111'
p3593
I01
sS'11001010100000110'
p3594
I01
sS'001101100100'
p3595
I00
sS'001001100'
p3596
I01
sS'110110111111010111'
p3597
I00
sS'0110011100110110110'
p3598
I01
sS'001000001111'
p3599
I00
sS'000011111'
p3600
I00
sS'000011110'
p3601
I00
sS'011101111001'
p3602
I00
sS'010001100001001'
p3603
I00
sS'11110000'
p3604
I01
sS'0011111111111011100'
p3605
I01
sS'0001011000000100'
p3606
I00
sS'010000011'
p3607
I01
sS'1110010011'
p3608
I00
sS'010101100'
p3609
I00
sS'10111101'
p3610
I00
sS'11010110'
p3611
I00
sS'1101111011111'
p3612
I01
sS'01001111111'
p3613
I00
sS'101000'
p3614
I00
sS'101001'
p3615
I01
sS'101000111001101110'
p3616
I00
sS'00110011001'
p3617
I00
sS'01101111100000001011'
p3618
I01
sS'1011011110110'
p3619
I00
sS'000110001111011100'
p3620
I01
sS'001001010101011110'
p3621
I01
sS'00011001111101010'
p3622
I00
sS'0010101'
p3623
I00
sS'111'
p3624
I01
sS'110'
p3625
I00
sS'100110010110'
p3626
I01
sS'1101011011111'
p3627
I00
sS'101101111100'
p3628
I00
sS'000011000010'
p3629
I01
sS'101011010101010'
p3630
I00
sS'011110110'
p3631
I01
sS'0001000100010100'
p3632
I00
sS'110011110000'
p3633
I01
sS'110001101101'
p3634
I00
sS'0000000000011111'
p3635
I01
sS'0011110011111111110'
p3636
I01
sS'1111101011010010'
p3637
I00
sS'10111000010111111'
p3638
I00
sS'0111101100011'
p3639
I01
sS'110010000111100101'
p3640
I01
sS'01101111101101011000'
p3641
I00
sS'10010011001010101'
p3642
I00
sS'1101110010101'
p3643
I01
sS'0000110000'
p3644
I01
sS'1110100010101010'
p3645
I01
sS'1110001011100010011'
p3646
I00
sS'011110110000111'
p3647
I01
sS'1010010010011110101'
p3648
I00
sS'001111000101'
p3649
I01
sS'1110011111101101011'
p3650
I01
sS'1100001111101110'
p3651
I00
sS'000000101001'
p3652
I01
sS'01100011110000100'
p3653
I01
sS'110000001000000000'
p3654
I01
sS'1110111001110'
p3655
I00
sS'011010100010000'
p3656
I00
sS'1000000001100010'
p3657
I00
sS'01111001'
p3658
I00
sS'10001001110'
p3659
I00
sS'1000010101001'
p3660
I01
sS'1000010101000'
p3661
I00
sS'000001010001000000'
p3662
I01
sS'0011001000'
p3663
I00
sS'10110001001110100'
p3664
I00
sS'10100100111001001011'
p3665
I01
sS'100000110011001'
p3666
I01
sS'0000001110000000011'
p3667
I01
sS'1111111011111111110'
p3668
I01
sS'011100000000111100'
p3669
I00
sS'000000111'
p3670
I01
sS'010111111110001'
p3671
I00
sS'10010011100'
p3672
I00
sS'1000010000010'
p3673
I00
sS'10000000'
p3674
I01
sS'11101000101101010101'
p3675
I00
sS'00111111001'
p3676
I01
sS'00110010110'
p3677
I00
sS'11111111111011111'
p3678
I01
sS'010011000'
p3679
I01
sS'110000001'
p3680
I01
sS'0010000110000111001'
p3681
I00
sS'0110010010110001011'
p3682
I00
sS'1000110101'
p3683
I01
sS'010111011010111110'
p3684
I01
sS'0010101111110'
p3685
I01
sS'1101011110011101111'
p3686
I01
sS'0111101010011'
p3687
I01
sS'1000011000111'
p3688
I00
sS'01101'
p3689
I00
sS'011101001110010'
p3690
I00
sS'110010011010'
p3691
I01
sS'100111111011'
p3692
I01
sS'110010110011100000'
p3693
I00
sS'11010100'
p3694
I01
sS'000000000010010010'
p3695
I01
sS'110010001011011'
p3696
I00
sS'011000101100010011'
p3697
I00
sS'1111101111111110'
p3698
I01
sS'0110000'
p3699
I01
sS'011000110100'
p3700
I00
sS'1101010100'
p3701
I01
sS'0110101'
p3702
I00
sS'0101111111011010000'
p3703
I01
sS'100111011'
p3704
I01
sS'00001010000011110100'
p3705
I01
sS'0000101111110'
p3706
I00
sS'01101010010'
p3707
I00
sS'001011110110'
p3708
I00
sS'101001110101110'
p3709
I01
sS'10011110010100101000'
p3710
I00
sS'0010000011110010'
p3711
I00
sS'101100100000001001'
p3712
I01
sS'1111111111110101111'
p3713
I01
sS'00000000010110100000'
p3714
I01
sS'1111110'
p3715
I00
sS'111100111'
p3716
I00
sS'111100110'
p3717
I01
sS'011101000011'
p3718
I01
sS'0010000011100000'
p3719
I00
sS'1100010110011'
p3720
I00
sS'00010101000001000'
p3721
I01
sS'01101010011'
p3722
I00
sS'0000001011011111'
p3723
I01
sS'0000111101110000010'
p3724
I01
sS'00010010'
p3725
I00
sS'00010011'
p3726
I00
sS'1100011000110001'
p3727
I00
sS'0001000000110000110'
p3728
I01
sS'0101011'
p3729
I00
sS'111011101001010'
p3730
I01
sS'00000000000000001000'
p3731
I01
sS'00100011110000100101'
p3732
I00
sS'1001010011'
p3733
I01
sS'111010010010'
p3734
I01
sS'1000111001000100'
p3735
I00
sS'1111010011'
p3736
I00
sS'0000100010'
p3737
I01
sS'111010101'
p3738
I01
sS'01111000010000011'
p3739
I01
sS'100111'
p3740
I00
sS'00001000000000000000'
p3741
I01
sS'1000011011'
p3742
I01
sS'100110'
p3743
I01
sS'11111100000'
p3744
I00
sS'011110000101'
p3745
I01
sS'1111111111100111111'
p3746
I01
sS'01101110010'
p3747
I00
sS'010111110111000'
p3748
I01
sS'110101101'
p3749
I01
sS'01000100'
p3750
I00
sS'0101010101101111010'
p3751
I01
sS'1111101111111000110'
p3752
I01
sS'00110011000000101'
p3753
I00
sS'011001001101011101'
p3754
I00
sS'0001'
p3755
I00
sS'101110001111101101'
p3756
I01
sS'10100010010011011010'
p3757
I00
sS'0010011011100'
p3758
I00
sS'1110111111111111101'
p3759
I01
sS'0110100110'
p3760
I01
sS'000101000111001'
p3761
I01
sS'11100011001111001'
p3762
I01
sS'110110110101110'
p3763
I00
sS'00000000001000000000'
p3764
I01
sS'10101100001'
p3765
I00
sS'1101100101'
p3766
I00
sS'1101100100'
p3767
I01
sS'1111110111111011'
p3768
I01
sS'1000011011110'
p3769
I00
sS'111001100101110000'
p3770
I01
sS'0000001110001001'
p3771
I01
sS'0110100011011101'
p3772
I00
sS'011000001'
p3773
I01
sS'1110111111010'
p3774
I00
sS'00000111010100011010'
p3775
I00
sS'1111110011'
p3776
I01
sS'1111110010'
p3777
I00
sS'00010001001001101101'
p3778
I00
sS'101000110'
p3779
I00
sS'1100100100'
p3780
I00
sS'110111111110001100'
p3781
I01
sS'1101010001110011'
p3782
I00
sS'01000111100000111110'
p3783
I01
sS'11100010101'
p3784
I00
sS'111001010010'
p3785
I01
sS'1100011110111'
p3786
I00
sS'1011110101'
p3787
I00
sS'000001110011011101'
p3788
I01
sS'111110000000'
p3789
I00
sS'1100000001'
p3790
I00
sS'111100000101010010'
p3791
I00
sS'1100111'
p3792
I01
sS'1100110'
p3793
I00
sS'11111011100110100011'
p3794
I01
sS'1110011010000101100'
p3795
I00
ss.