(dp0
S'num_neg'
p1
I4973
sS'num_pos'
p2
I2523
sS'data'
p3
(dp4
S''
p5
I01
sS'bqed'
p6
I01
sS'emol(puq)qtvyxz'
p7
I01
sS'fkkcf(gs)v'
p8
I01
sS'sslzthqfk'
p9
I01
sS'eynzy'
p10
I01
sS'r(uwht)x'
p11
I01
sS')bkl'
p12
I00
sS'xmzsobjeqiqbpd'
p13
I01
sS'yjwlteufjyife'
p14
I01
sS'bukgpdak(t'
p15
I00
sS'ix(h'
p16
I00
sS'u(hs'
p17
I00
sS')qoyi'
p18
I00
sS'wd)i'
p19
I00
sS'k(vvcl))'
p20
I00
sS'c(i)n(dn)dxbc'
p21
I01
sS'aylcdxzo(n)de'
p22
I01
sS'sypq(z)gvf'
p23
I01
sS'mhkvt)vdf'
p24
I00
sS'dpe((hom)pgvrf)dcl)wwfchq'
p25
I00
sS's(kj(frb)'
p26
I00
sS'(ru)nmpv)qalwah'
p27
I00
sS'(rmy((lc(k)olnvatbbbaqr)o)d)kz'
p28
I01
sS'gloernszsstk'
p29
I01
sS'my((bnifh'
p30
I00
sS')gcrcdganxr'
p31
I00
sS'ajhnynmf(yapqcqmeanfnm)bppuah)'
p32
I00
sS'cgtzjpky(h)hk'
p33
I01
sS'dghcwckzz'
p34
I01
sS'dinfapxc'
p35
I01
sS'bojmdrf((pzi))u'
p36
I01
sS'bl'
p37
I01
sS'lbqohtlii'
p38
I01
sS')d'
p39
I00
sS'te)k(m)px'
p40
I00
sS'(nnbp(gwqejcxx))hpuhw)wm)'
p41
I00
sS'u(s)()deem'
p42
I01
sS'r(wa(t)(aa)ks'
p43
I00
sS'qdqew((han)t)jbxtjrt'
p44
I01
sS'xjbwcgag'
p45
I01
sS'stw((outgnd)tngg()av'
p46
I00
sS'(s(h)s)s'
p47
I01
sS'mlzioe(rxu)qfb'
p48
I01
sS'faxmxg)'
p49
I00
sS'p(pr'
p50
I00
sS'k(ofh)i'
p51
I01
sS'k(zqt)nmv)muz'
p52
I00
sS'n(rldjey)l'
p53
I01
sS'(runu(sa)a))p'
p54
I00
sS'(u(fyvc))avxl'
p55
I01
sS's((fvcb)'
p56
I00
sS'(kd(imy)ou)yo'
p57
I01
sS'(alnt)cxqsbtdw)vghxijcvdrbgw)o'
p58
I00
sS'mj(osg)sp'
p59
I01
sS'wvmtpjerok'
p60
I01
sS'nv(ypopbh(d)ksf'
p61
I00
sS'kdmoydn'
p62
I01
sS'gawv((r(rgsa)c)qsmz)'
p63
I01
sS'rlwubtjul(lud)btdawn'
p64
I01
sS'k(r)e'
p65
I01
sS'wjxm'
p66
I01
sS'(kakojzrquuvhpk'
p67
I00
sS'fstevsr(h)e'
p68
I01
sS'd())s'
p69
I00
sS'(cyf'
p70
I00
sS'po((vn()v)mqm)fcuyf(qcrxw'
p71
I00
sS'htwv)de((aq))b'
p72
I00
sS'zwwaqhckkvb'
p73
I01
sS'uae(j)u'
p74
I01
sS'cmm'
p75
I01
sS'zknntm()au'
p76
I01
sS'()ta((ekd)by)bx'
p77
I01
sS'eoqprr(duubnqnp'
p78
I00
sS'cmf'
p79
I01
sS'xvdapk()jn)l'
p80
I00
sS'ivizxh(ffji)okwsnovl'
p81
I01
sS'b((o)j(bjipriyhbmo)unpg)l'
p82
I01
sS'((()u((gfee)xr)mdq))eaamc'
p83
I01
sS'r((te(s)'
p84
I00
sS'cmz'
p85
I01
sS'ps(p)wwnw(dtty'
p86
I00
sS'xez(whi(j)lw)'
p87
I01
sS'zqj(ygjg'
p88
I00
sS'x(ahe(()zuvfk)oe)sak'
p89
I01
sS'p(rm)v(mgc)xlzx'
p90
I01
sS'v((nf)v'
p91
I00
sS'(i()yxoxghmj)'
p92
I01
sS'myydp(esmc'
p93
I00
sS'(jusk'
p94
I00
sS'fjge)t'
p95
I00
sS'djaqbya'
p96
I01
sS'oooc((()hpttubr'
p97
I00
sS'((kvxfi(sf)gavs)kxz)'
p98
I01
sS'(mg)wph'
p99
I01
sS'((prbrfrcgqxboect)jjmautm'
p100
I00
sS'jqb()t(dy)ofxj'
p101
I01
sS'r(q)hkab(w)w'
p102
I01
sS'bbqf'
p103
I01
sS'zoo((enponiuufrt)))m'
p104
I00
sS'rhw)whubcu'
p105
I00
sS'f(esoyk'
p106
I00
sS'(nx((xo(nnqy)aymoor)qqyyoarn)f'
p107
I00
sS'v)cz)tr'
p108
I00
sS'h(de'
p109
I00
sS'f(uwi)'
p110
I01
sS'pm(wq)k'
p111
I01
sS'jss((ys)n'
p112
I00
sS'pwsgx'
p113
I01
sS'x(cjk)xngtp'
p114
I01
sS'gisql'
p115
I01
sS'jlkxttavh'
p116
I01
sS'lx(()(l((br)o)jxbsou'
p117
I00
sS'wd)'
p118
I00
sS'((thlddfrcae)hbok))j'
p119
I00
sS'(dyh'
p120
I00
sS'ov((appp)fk)ctvxcampunllrroffc'
p121
I01
sS'fwvk()xbp'
p122
I01
sS'()(l(rla)tnj)'
p123
I01
sS'(e)xw'
p124
I01
sS'knrjyvjvtr'
p125
I01
sS'(n)u(m'
p126
I00
sS'hesot'
p127
I01
sS'hl()vgs()k'
p128
I01
sS'mo(qaowgx)tfi'
p129
I01
sS'vqevn(()w'
p130
I00
sS'ktf((mpsen))m'
p131
I01
sS'nrolky'
p132
I01
sS'mdqq(tt))'
p133
I00
sS'(r)tkaq)qj'
p134
I00
sS'e((ldzzf'
p135
I00
sS'(ktzzllcx)q'
p136
I01
sS'fauev()ja(ihlospcfffoozookld)m'
p137
I01
sS'n((bofygitvvfndzklgpnjbnl)ba)i'
p138
I01
sS'()ncn(ben(n)m))'
p139
I00
sS't(v)'
p140
I01
sS'nawr'
p141
I01
sS'utt((p()mmb'
p142
I00
sS'(zb(n(wdddvhlzgzsqq)sxjpz)d)vp'
p143
I01
sS'd(z)vbxu'
p144
I01
sS'pjqpd()km'
p145
I01
sS'dwouenl((nb)mpl)wwtoxhua)'
p146
I00
sS't(odd))'
p147
I00
sS'h((tb)cqzh'
p148
I00
sS'jgb(wr(o(opklcmteduaadk)hv))ir'
p149
I01
sS'fcnm(()uoyavhas)uxwg'
p150
I01
sS'gzdttivnvseldf'
p151
I01
sS'cnnn(z(ssdoiz)oajzwb'
p152
I00
sS'(akddi)h'
p153
I01
sS'bk)cpz'
p154
I00
sS'pshhtnchlb)'
p155
I00
sS'uohqwb(k)z'
p156
I01
sS'mxl(utqn)jxh'
p157
I01
sS'qjwe'
p158
I01
sS'diwdy(t()kllxirvynxi'
p159
I00
sS'tydg)od'
p160
I00
sS't))cuvdignqww'
p161
I00
sS't(g)vjnlsuf'
p162
I01
sS'djnmseqit'
p163
I01
sS'l((wou)now)v'
p164
I01
sS'd(zg(z)ihu)'
p165
I01
sS'((t))'
p166
I01
sS'jz)o'
p167
I00
sS'z()b(rw)gshde'
p168
I01
sS'(cl)y(of)'
p169
I01
sS'shpjpeugygenwuz'
p170
I01
sS'nkkyg)jvi'
p171
I00
sS'rbfae'
p172
I01
sS'kjuazn'
p173
I01
sS'qzj'
p174
I01
sS'(j)()mtmrjf'
p175
I01
sS'dytuzrw(z)'
p176
I01
sS'f(yzcwisbn)))'
p177
I00
sS'(clk(qamkk))ni'
p178
I01
sS'lma'
p179
I01
sS'suu(f()ry'
p180
I00
sS'bre'
p181
I01
sS'h(('
p182
I00
sS'duluyq'
p183
I01
sS'()bjttsm'
p184
I01
sS'u(x'
p185
I00
sS'hh())pl'
p186
I00
sS'qqq(w(ugttuuh(aaikaz)qavrybd)o'
p187
I00
sS'wzxlpf(fe))iua'
p188
I00
sS'jka((hzyn)vtm)'
p189
I01
sS'(wsqo)'
p190
I01
sS'dnb'
p191
I01
sS'l((wu'
p192
I00
sS'bbitoc()c'
p193
I01
sS'ycmp'
p194
I01
sS'm)'
p195
I00
sS'erwtkgcn)y'
p196
I00
sS'f(()(()jpeevstcf)of)eoqlp'
p197
I01
sS'()wv(ia)((s)sr)zgcxi'
p198
I01
sS'(mitmxwyu)iaebnglskekkspc'
p199
I01
sS'lndew'
p200
I01
sS'(wt)lrv'
p201
I01
sS'(nk(q(kgfm)mukkr)f)y'
p202
I01
sS'vef(r(x(eozyohph)j)pioor)'
p203
I01
sS'yi)kh'
p204
I00
sS'a(t(onyo'
p205
I00
sS'a(((g(()(hg()fpe))wl)ryxf'
p206
I00
sS'((xg)k)s'
p207
I01
sS'(jowr)v'
p208
I01
sS'rbfa)'
p209
I00
sS'g(tvdk)ktiimdse'
p210
I01
sS'(zz(ddrduq)h'
p211
I00
sS'it(gy'
p212
I00
sS'h(v'
p213
I00
sS'h(z'
p214
I00
sS'n()h(jx)'
p215
I01
sS'v(cp)nmq'
p216
I01
sS'blckzuk'
p217
I01
sS'cqbua(e(qzn)))xaqbqi'
p218
I00
sS'(atyzp'
p219
I00
sS'(hab'
p220
I00
sS'x((((sci'
p221
I00
sS't(rssqvvfbnnog'
p222
I00
sS'one(((xwt)laxbhaj)jf'
p223
I00
sS'gv()dkig'
p224
I01
sS'(umlvb(rcnzj)pzuwicw'
p225
I00
sS'b(i)yfj(b())c'
p226
I01
sS'tnu'
p227
I01
sS'tza'
p228
I01
sS'yyihx((ms))wyvn'
p229
I01
sS'fvhht(cb))'
p230
I00
sS'tnq'
p231
I01
sS'tns'
p232
I01
sS'(ph)oo(e(()tvbvftr)zzowwabr)af'
p233
I01
sS'qxl(tkn'
p234
I00
sS'(d)pkqfuu)b'
p235
I00
sS'erx'
p236
I01
sS'dn('
p237
I00
sS'rj(u)(uuiwxt)pa)spij'
p238
I00
sS'tne'
p239
I01
sS'yc(p((ur)vjijjzm)ast'
p240
I00
sS'reqlzqb)c'
p241
I00
sS'((()(zmb(aaxx))fff)l'
p242
I00
sS'dxxyui(pwpo'
p243
I00
sS'uahlolgljdyox'
p244
I01
sS'(hgini)ktqhyyd)keqfo'
p245
I00
sS'(hwg)'
p246
I01
sS'bffss)'
p247
I00
sS'(c(l)xagzsvowh)'
p248
I01
sS'rc)mln(r)chxy)gzhlqbjjhuvhgdql'
p249
I00
sS'uqmxrt)o'
p250
I00
sS'(()wukzobe)fvqd'
p251
I01
sS'lp((vvtmrpxk)kyyxbak)bqymhiftv'
p252
I01
sS'((ll((vkn()g)ek)ydzebmiio'
p253
I00
sS'pkv(rzvp'
p254
I00
sS'(tzl)(ee)wbyiqe'
p255
I01
sS'(fugp)'
p256
I01
sS'n()w)u'
p257
I00
sS'u((e(im)stuh)yy'
p258
I00
sS'xt()grmmwz'
p259
I01
sS'huwhmgexn'
p260
I01
sS'nx(((dgey)qcyzien))eaxakr'
p261
I01
sS'gfkxhce'
p262
I01
sS'x()p'
p263
I01
sS'wu(ucqqc)zfixic'
p264
I01
sS'aszbv(ucccot)'
p265
I01
sS'm()(g()bl'
p266
I00
sS'q(hd)p'
p267
I01
sS'qn))xco)nzd'
p268
I00
sS'h)xy'
p269
I00
sS'mewmk(e)'
p270
I01
sS'zb(shcu)q'
p271
I01
sS'((q)(da)etvn)yrr)wtf'
p272
I00
sS'on()qkcngje'
p273
I01
sS'lxtqw'
p274
I01
sS'fl(ulxuz(qgyhb))mtf)'
p275
I00
sS'(gmz)zgc'
p276
I01
sS'm(xbl()g(nshe)vwygyrk)iqyrdbqq'
p277
I01
sS'rngjwzjlc'
p278
I01
sS'billo(dop)yi)cpsavkn'
p279
I00
sS'sxcxuakb()'
p280
I01
sS'ea()'
p281
I01
sS'l)tl(zbum)rani'
p282
I00
sS'jb)(wi(i)fq)apy'
p283
I00
sS'(rjmfs)tvu'
p284
I01
sS'ngc(wn)'
p285
I01
sS'(rr(((ehwgdku)d))rxwwldpw'
p286
I00
sS'yn(fk(oug))s'
p287
I01
sS'ws(fz'
p288
I00
sS'ct(n(v(piuyii)hyzezaurcyl'
p289
I00
sS'z)mrr'
p290
I00
sS'nf(mhxtlujto'
p291
I00
sS'pitjptex'
p292
I01
sS'kj(qs)ms(rtjt)zsxgec'
p293
I01
sS'uq()dxb(bxkz'
p294
I00
sS'dzyt'
p295
I01
sS'gh()ofyf'
p296
I01
sS'kxxeor'
p297
I01
sS'ovfweyvmghuhl'
p298
I01
sS'ce(h((wj)ncx)h)zcopm'
p299
I01
sS')()usx'
p300
I00
sS'k(bv(i)())lhxl'
p301
I01
sS'agrt(s)e'
p302
I01
sS'lghxmvq'
p303
I01
sS'vxard)(umvvm)mo'
p304
I00
sS'(ow)u(lwn)nvqpnsgdkcgsazg'
p305
I01
sS'(xlpf)xqvzxtaf'
p306
I01
sS'pq(bh)szh'
p307
I01
sS'(rudgghv)e'
p308
I01
sS'cntm(x(cmx)f)z'
p309
I01
sS'ep(uqzesi'
p310
I00
sS'()ktr)rrccn'
p311
I00
sS'(g(llz(ltfo)yep)ogdr'
p312
I00
sS'gxks(nkfhwejkqsehrzgugr)k'
p313
I01
sS'njfth'
p314
I01
sS'h)qrorrwc'
p315
I00
sS'(xxo((x)kr(vbsyp)gicdwwrv'
p316
I00
sS'()muj'
p317
I01
sS'((a(tf(zf)rro))bkyg)'
p318
I01
sS'sheddm(hjr'
p319
I00
sS'gt)vbboch'
p320
I00
sS'k(kawkejt()y)'
p321
I01
sS'eagk()m(dse)uh'
p322
I01
sS'pb(rzp)'
p323
I01
sS'(aw)ndfcb'
p324
I01
sS'vqt()nxut'
p325
I01
sS'kdimrnrmag'
p326
I01
sS'r()ype'
p327
I01
sS'hcdjwg(r(utyu)s)odrp'
p328
I01
sS'hgae()u)'
p329
I00
sS')mv'
p330
I00
sS'fzy()()lfk'
p331
I01
sS'(k)aun'
p332
I01
sS'l()(()yk)uynfy'
p333
I01
sS'pkl()szr'
p334
I01
sS'(dhplf'
p335
I00
sS'g)kpur'
p336
I00
sS'clzl()n(r)nod'
p337
I01
sS'o(tzxi'
p338
I00
sS'(xen'
p339
I00
sS'))zf'
p340
I00
sS'(sngbryt'
p341
I00
sS'em((psloyqrfxwnp))bopikzatsgz)'
p342
I00
sS'z)pb(ybhp)iec'
p343
I00
sS'mx((o(nntutto)l'
p344
I00
sS'epyjz'
p345
I01
sS'ibwqmmv'
p346
I01
sS'o()bcyckwcrzg'
p347
I01
sS'hjmypb(v)oy'
p348
I01
sS'yubx)bo'
p349
I00
sS'lu(gqknh)w)b(hhgfzdbbbenujiiu)'
p350
I00
sS'axbpcu)'
p351
I00
sS'g(()lkqpa'
p352
I00
sS'efjdiwhhitq'
p353
I01
sS'ewrmiqf(shhr)jv'
p354
I01
sS'vlpkkkkld(nj))y'
p355
I00
sS'gegqnziaj(hcp)sowkbbiwfvy'
p356
I01
sS'lf()rd(x))sxo'
p357
I00
sS'kwiewfa'
p358
I01
sS'vqflaaawiiioo((()))ydbbzcczb)p'
p359
I00
sS'l(bguznlugzzz'
p360
I00
sS'uoz'
p361
I01
sS'(cvhl)e'
p362
I01
sS'fiy'
p363
I01
sS'bottjli()'
p364
I01
sS'l(j'
p365
I00
sS'nlu(e(ix)si)'
p366
I01
sS'cytqshz(q)w'
p367
I01
sS'gwwrsqqqm(bl(x)'
p368
I00
sS'nhc((a()zq)tipmvjpz)'
p369
I01
sS'qa(o)myqmaoi'
p370
I01
sS'n(a)(a)(drtpry)vcckg'
p371
I01
sS'(ceraissbtjbxk'
p372
I00
sS'uok'
p373
I01
sS'o(mgd)'
p374
I01
sS'wqqqqt)dxqyya))(o)hlpu))g'
p375
I00
sS'(wbuq'
p376
I00
sS'eqbe(jc(of))cn'
p377
I01
sS'jybmumyjixpx'
p378
I01
sS'cr(dp)(rplc'
p379
I00
sS'(v(yz'
p380
I00
sS'zp(()ifxxllbax'
p381
I00
sS'rmyg(tl)'
p382
I01
sS'o(bbu)s'
p383
I01
sS'wrh(af)'
p384
I01
sS'wccpe'
p385
I01
sS'yoruc'
p386
I01
sS'urmv'
p387
I01
sS'vkjpevlagf'
p388
I01
sS'v)q'
p389
I00
sS'h(lcyyv)s'
p390
I01
sS')zysjx()ad'
p391
I00
sS'lf)p'
p392
I00
sS'v)x'
p393
I00
sS')hvr'
p394
I00
sS'()t(f)'
p395
I01
sS'(e(ped((deyydnq))v)mxkktvlxgmy'
p396
I00
sS'()kaftujopm)'
p397
I00
sS'()()ztd'
p398
I01
sS'((kskjjooxxg'
p399
I00
sS'(ndsddki'
p400
I00
sS'hcaohwm('
p401
I00
sS'dzgccrsb))a'
p402
I00
sS'l'
p403
I01
sS'lf(())icc'
p404
I01
sS'aymrbie()dyskddxyzbr'
p405
I01
sS'zhry(((s(b))hvep)us)'
p406
I01
sS'oyaqfld'
p407
I01
sS'(l((h(owms)p)x)fux)s'
p408
I01
sS'z(yur(())'
p409
I00
sS'nxbli'
p410
I01
sS'umtaskdxi'
p411
I01
sS'clpftner'
p412
I01
sS'nqgyfurg'
p413
I01
sS'k(slgi(yk(wkv)))anmxwzgiwwj)ny'
p414
I00
sS'uujxihr(es(()ktbum(nzzeia))k)e'
p415
I01
sS'garzeqhcj'
p416
I01
sS't(jymvavp(rwtkwr)uhu'
p417
I00
sS'vpyxq(d)fvpcxxgbzyydcbfofqbofh'
p418
I01
sS'lgtd((vl)lf)'
p419
I01
sS'(wwi(d)vtadxp'
p420
I00
sS'(ss'
p421
I00
sS'(sq'
p422
I00
sS'cr((z(um(danmp)i)k))'
p423
I01
sS'(sw'
p424
I00
sS'pzzyhnsuu(pv'
p425
I00
sS'()ffhndp)urzlpt'
p426
I00
sS'lucrkuh'
p427
I01
sS'eeiihrj'
p428
I01
sS'azifp(ty)yxs'
p429
I01
sS'wizs(b'
p430
I00
sS'c)p(reee)'
p431
I00
sS'atsrjxzqyzlwdwn'
p432
I01
sS'mqhsmqtxp'
p433
I01
sS'(a)'
p434
I01
sS'(yde)o'
p435
I01
sS'((qojhddcgtmwhh))u)s'
p436
I00
sS'rq'
p437
I01
sS'rs'
p438
I01
sS'zjqnfh'
p439
I01
sS'womoj()(v(qx)ufkijr)'
p440
I01
sS'dkttgob(lsevm)n'
p441
I01
sS'dje((ms(v()pkkekkdozll)ppcumot'
p442
I00
sS'yu(tfvdvrzh'
p443
I00
sS'kkin'
p444
I01
sS'vpog(g)ud'
p445
I01
sS'v)nrlcf)rsf'
p446
I00
sS'gmvzq'
p447
I01
sS'ombw'
p448
I01
sS'y())()'
p449
I00
sS'(quiq())thnw'
p450
I01
sS'bmibuy(ti)a'
p451
I01
sS'gcum(lbgmtzsav'
p452
I00
sS'm)xh'
p453
I00
sS'ceepk())hzch'
p454
I00
sS'(qezx'
p455
I00
sS'bw(f(mkvm)ln(fm'
p456
I00
sS'tlwgs'
p457
I01
sS'uueu'
p458
I01
sS'(xdktoplywro))tvqipp'
p459
I00
sS'os(ux)uf()'
p460
I01
sS'hpk(op)b'
p461
I01
sS'fz(yv'
p462
I00
sS'dkbwul(daq)cegs'
p463
I01
sS'c(uy)mqvg'
p464
I01
sS'qjyblxhhj'
p465
I01
sS'(ykw)uyybbj'
p466
I01
sS'ug((hhdm)vx)'
p467
I01
sS'ishknlnq'
p468
I01
sS'xdi)b'
p469
I00
sS'pppn((uxwslntbt)))rilaa))'
p470
I00
sS'mkiswjhg()rp'
p471
I01
sS'j(ivt)eraqcxeyp'
p472
I01
sS'sn(((nxyoiwz))z'
p473
I00
sS'x(ach)'
p474
I01
sS'kwsc(n()wt(n)'
p475
I00
sS'akuzh'
p476
I01
sS'(ntjbt((sljer)uczcyz))bfu'
p477
I01
sS'rkhp(mvh)'
p478
I01
sS'nj()hh'
p479
I01
sS'nai((vwolflq)ckfrrc)fuzfy'
p480
I01
sS'c()(z)h(hgecazakyv)d'
p481
I01
sS'io(i'
p482
I00
sS'g)eocvv'
p483
I00
sS'wbfz(o)'
p484
I01
sS'es((a))lcm'
p485
I01
sS'wdn)dtw()fjfo'
p486
I00
sS'zzggx(ba))'
p487
I00
sS'(az'
p488
I00
sS'ezeezwgx()'
p489
I01
sS'(((ci(((nucij)))zirutljg))vcon'
p490
I00
sS'((rwp(xelp)vxqnq)pdb))kkc(fvlz'
p491
I00
sS'(sp()o)'
p492
I01
sS'r('
p493
I00
sS'r)'
p494
I00
sS'rpwhw(amm((uh))tdfx)tjfp)pwqbx'
p495
I00
sS'spbzhuk()wy'
p496
I01
sS'b()'
p497
I01
sS'h)s'
p498
I00
sS'kfp'
p499
I01
sS'(xkmv)()yz'
p500
I01
sS'enemcf(pqoac)oatluue'
p501
I01
sS'gdhokdytipc'
p502
I01
sS'tawb)'
p503
I00
sS'ydf)'
p504
I00
sS'((q)aklei'
p505
I00
sS'yklqpeh(kjsgy)l'
p506
I01
sS'(tbkesii(lgymvl)q))uogqqq'
p507
I00
sS'bb(whmk(kwuz)nza)gzotifjg'
p508
I01
sS'((fw(c(l)oggxnl)ie)qhkpmp'
p509
I00
sS'r(d()anzb(bwzvvdgjxmckkvnntutz'
p510
I00
sS'd()oewgsf'
p511
I01
sS'(u)had'
p512
I01
sS'(rd(umz)bc)'
p513
I01
sS'b(m(knznsp))'
p514
I01
sS'po(a(q()wvnnq)a'
p515
I00
sS'k(q)kp'
p516
I01
sS'zb(pn((o)w)quwhdruby'
p517
I00
sS'(hxgqdna)'
p518
I01
sS'(fu'
p519
I00
sS'(v)k'
p520
I01
sS'r(iacrokbxg)vd'
p521
I01
sS'q(gl)qdvlbsvvgc'
p522
I01
sS'myx)'
p523
I00
sS'(oxlf'
p524
I00
sS'reerx'
p525
I01
sS'oygddd)))b'
p526
I00
sS'nh(sy)ii(()'
p527
I00
sS'v(((d()ybqrg)wwkin)voi)do'
p528
I01
sS'jpls(ghh)rlcnsy)rsoj'
p529
I00
sS'ca(gjg()ogw)yn'
p530
I01
sS'fcqpx()(ajb))rp'
p531
I00
sS'mwv)'
p532
I00
sS'(v)q'
p533
I01
sS'z(b)'
p534
I01
sS'jcj(fisws)'
p535
I01
sS'daqqjlkv)aakh'
p536
I00
sS'()ud(cr'
p537
I00
sS'frtwjyd'
p538
I01
sS'stmuvxcq'
p539
I01
sS'(tnavhxquu'
p540
I00
sS'ap(boozlj)h'
p541
I01
sS')t(ibq(ldi)gn'
p542
I00
sS'izlwigyld'
p543
I01
sS'wzmmfe'
p544
I01
sS'()qhhuhj'
p545
I01
sS'mdhoomsu(f)ofqwzwuardddumcpbbj'
p546
I01
sS')vqdd'
p547
I00
sS'w)op'
p548
I00
sS'jj)'
p549
I00
sS'huq(a(ndy)ng)ft'
p550
I01
sS'(geq)(ar)'
p551
I01
sS'((qoj(ddcgtmwhh))u)s'
p552
I01
sS'(()swmvis)njunz'
p553
I01
sS'(mcmygh'
p554
I00
sS'fnf(i))feeeull'
p555
I00
sS'jdaf(p)s'
p556
I01
sS'nzv'
p557
I01
sS'()sycy'
p558
I01
sS'abvqg'
p559
I01
sS'nzz'
p560
I01
sS'es((edwvuyx)e)'
p561
I01
sS'()r()'
p562
I01
sS'rudxe'
p563
I01
sS'nnufaudmmpe'
p564
I01
sS'()(exrqauyebmy)spkkt'
p565
I01
sS'nzf'
p566
I01
sS'qffnhgcck'
p567
I01
sS'nzd'
p568
I01
sS'c()xo'
p569
I01
sS'rblkykg'
p570
I01
sS'()()(yx((hafa)kccir)hxdgn'
p571
I00
sS'tcyt'
p572
I01
sS')vbv'
p573
I00
sS'vsa((s))tkto)'
p574
I00
sS'fra((()))pi'
p575
I01
sS'((u)ghjvjitrdmbhy)vp'
p576
I01
sS'(mmmgrzfhrukvlnrnpuss)hptfhpfn'
p577
I01
sS'bqsy(ojexix)'
p578
I01
sS'hpcq'
p579
I01
sS'(zqi()(ccc)t))n'
p580
I00
sS'hbocflcsyoyc'
p581
I01
sS'xpbs'
p582
I01
sS'rpisoto()'
p583
I01
sS'mkmpjs((bmih)y)izlyfokjuz'
p584
I01
sS'h(tb)acqzh'
p585
I01
sS'uq()e'
p586
I01
sS'mla(yyt)'
p587
I01
sS'ndsumw)tie)l'
p588
I00
sS'p()(pxbx)ussfssnikks'
p589
I01
sS'x)'
p590
I00
sS'(lv)(vpp)fjex'
p591
I01
sS'bbnw'
p592
I01
sS'd((ucs(ud)rpuuc)yyhb'
p593
I00
sS'mm())gze'
p594
I00
sS'zmjbry()'
p595
I01
sS'tab)jifegmx'
p596
I00
sS'vengbidpr'
p597
I01
sS'sww((n)s)j'
p598
I01
sS'nnzrk)'
p599
I00
sS'aaox(l)mhavk'
p600
I01
sS'vgl'
p601
I01
sS'vgh'
p602
I01
sS'bwpj()(((ucffj)m)c))guuis'
p603
I00
sS'eh(c)sczqi)ow'
p604
I00
sS'psoznds(cevli)'
p605
I01
sS'xpiai'
p606
I01
sS')lm'
p607
I00
sS'j)wmwd(fouc)'
p608
I00
sS'ggp))a'
p609
I00
sS'di(mq)(qow)xk'
p610
I01
sS'rj(((i(bx(ltora)p))lplu))'
p611
I01
sS'((mls(pqi))fnyd'
p612
I00
sS'v((ciycubm))azinbmxj'
p613
I01
sS'ybpzh(n(k))ue)'
p614
I00
sS'xb((pyxdxog)eh'
p615
I00
sS's))eqj'
p616
I00
sS'(ohd)in(s)'
p617
I01
sS')wtw'
p618
I00
sS'n(kj)i'
p619
I01
sS'wf(rp'
p620
I00
sS'vvtlz((y(y)wqaetdztkye)vs'
p621
I00
sS'zpi()r(agohv)'
p622
I01
sS'felchtytjxum'
p623
I01
sS'ooezeqoty'
p624
I01
sS'r(ozuboz))j'
p625
I00
sS'szuuh'
p626
I01
sS'zckz()oauoy'
p627
I01
sS'rhmvd(f)z)pz'
p628
I00
sS'ef(zi)a()'
p629
I01
sS'ktbvapy(nclajpyikkhhd()oc'
p630
I00
sS'p(()kaa'
p631
I00
sS'(r((((zp((fz))zktl)wk)nshv)ekc'
p632
I00
sS'((j()jdzomxupbllp)ry)ti))'
p633
I00
sS'(ycumuuye)o'
p634
I01
sS'(yr)c()(tkar)'
p635
I01
sS'fipqagun'
p636
I01
sS'((g()f)g(bx)v)nqzwvu'
p637
I01
sS'p(ednwwwaa))g'
p638
I00
sS'lti))gcm'
p639
I00
sS'urpldef'
p640
I01
sS'fy(t)sgqu(w)ejn'
p641
I01
sS'(((hhppooo))s'
p642
I00
sS'm'
p643
I01
sS'(ktzzlcx))q'
p644
I00
sS't(yyov(dj()spvnz)f)v'
p645
I01
sS'bvz((a)jmw'
p646
I00
sS'zxb(ye(jwgsmfyxw)kqbjajm)'
p647
I01
sS'ld(vq'
p648
I00
sS'zwxxomttzup'
p649
I01
sS'xvkusr(tcmmmwyeox))m'
p650
I00
sS'v(j)wybwrjblh'
p651
I01
sS'y(rctaj)'
p652
I01
sS'baif(cqn)fpbsq'
p653
I01
sS'd(oczixxln)o'
p654
I01
sS'r(y'
p655
I00
sS'x(fx(jhmy))'
p656
I01
sS'(zesvsido()ea)z'
p657
I01
sS'd('
p658
I00
sS'iyt(r)qi'
p659
I01
sS'p()t('
p660
I00
sS'niraxjmouwt)'
p661
I00
sS'rmmilla)lmy'
p662
I00
sS'lyihlmruih'
p663
I01
sS'n(obe)g(czf)'
p664
I01
sS'ivf)pwwf(k'
p665
I00
sS'ytwk'
p666
I01
sS')uaifn'
p667
I00
sS'hizczxev'
p668
I01
sS'(pjmmd)))zeggl'
p669
I00
sS'qmhnbvjf)nniv'
p670
I00
sS'r(n'
p671
I00
sS'h(()b'
p672
I00
sS'z(cv))m'
p673
I00
sS'v)xyijcf'
p674
I00
sS'gmilxtqncnke'
p675
I01
sS'ays(z'
p676
I00
sS'pelzvclrgsj'
p677
I01
sS'wl()())w'
p678
I00
sS'kjcnvy(zpcuqefg'
p679
I00
sS'dg((((q)dc)zut)ddk)d'
p680
I01
sS'v)okj'
p681
I00
sS'hd(c)o'
p682
I01
sS'ckoq)yzuwqjspoehf(aoypgkahnpms'
p683
I00
sS'(rkbnu))oxzrvzy'
p684
I00
sS'bjdpo'
p685
I01
sS'xdhd())es'
p686
I00
sS'(nfl()()vkffb)'
p687
I01
sS'()(pap)vq'
p688
I01
sS'(gr)qvwk(eon)jipjzqzlvhqsxyllb'
p689
I01
sS'dn'
p690
I01
sS'fgr()'
p691
I01
sS'dl'
p692
I01
sS'dm'
p693
I01
sS'dj'
p694
I01
sS'(jj)r)zux'
p695
I00
sS'gy(f'
p696
I00
sS'yfc'
p697
I01
sS'df'
p698
I01
sS'dg'
p699
I01
sS'dd'
p700
I01
sS'db'
p701
I01
sS'dc'
p702
I01
sS'tm))n()qjjtjtz'
p703
I00
sS'hr)j(vld)fy'
p704
I00
sS'()rluthhxyofbf'
p705
I01
sS'dz'
p706
I01
sS'ycxxyep'
p707
I01
sS'dx'
p708
I01
sS'dy'
p709
I01
sS'wnc)l(yyqy)'
p710
I00
sS'((r)(())gfv)'
p711
I01
sS'dt'
p712
I01
sS'wcp()vihn'
p713
I01
sS'ds'
p714
I01
sS'giwr'
p715
I01
sS'tqi)mn(rxi)j'
p716
I00
sS'ucq((hla)s)u'
p717
I01
sS'bb(((((d(pt))w)))peeiktty'
p718
I00
sS'vvayqdnne'
p719
I01
sS'tto(j(p)maa'
p720
I00
sS'fm((xymimzsnu(yzjpbsru))e'
p721
I00
sS'emb'
p722
I01
sS'()wcf(zmpol)'
p723
I01
sS'wlyylsvv'
p724
I01
sS'kwunc'
p725
I01
sS'fg(blblz(o)kkwwwbkja)fbmd'
p726
I01
sS'lk((dee)'
p727
I00
sS'emp'
p728
I01
sS'(fi()(()(myej)bj)oq)'
p729
I01
sS'wz)'
p730
I00
sS'qdiwh'
p731
I01
sS'a((())poetwl)'
p732
I01
sS'm(txa)q'
p733
I01
sS'khitpw(pgcwznway)))a'
p734
I00
sS'gcpsticelvqly'
p735
I01
sS'ahbxdxcsjsgtakk'
p736
I01
sS'(wlx()zruatcjmr'
p737
I00
sS'etid'
p738
I01
sS'sbxl(h'
p739
I00
sS'qss)(qjxdh(ssr)bavh)'
p740
I00
sS'((v()avbqwym))h'
p741
I01
sS'qhu)vspnqlxjkp'
p742
I00
sS'zb)'
p743
I00
sS'jzus()'
p744
I01
sS'(dafugk'
p745
I00
sS'dlerpmf((yuh)x'
p746
I00
sS'ylkj(ktufni)ibq'
p747
I01
sS'msykpz(ipbk)la'
p748
I01
sS'fett)'
p749
I00
sS'q(tzx)'
p750
I01
sS'hpnbmutcuahuxg'
p751
I01
sS'pkzy'
p752
I01
sS'bd))'
p753
I00
sS'(()m'
p754
I00
sS'((myv)'
p755
I00
sS'rp)q'
p756
I00
sS'nhlyldnejj)h'
p757
I00
sS'mrofmmo'
p758
I01
sS'irq'
p759
I01
sS'xvs'
p760
I01
sS'(bf'
p761
I00
sS'g()vfl'
p762
I01
sS'((lj()rr)zq)krd'
p763
I01
sS'irv'
p764
I01
sS'eerriaohyh(q(fzwkee(b)e)zloji)'
p765
I01
sS'xvi'
p766
I01
sS'yugkoun((pv))wa'
p767
I01
sS'rtvgr'
p768
I01
sS'irl'
p769
I01
sS'xvl'
p770
I01
sS'xvo'
p771
I01
sS'sucbpoes)guwb'
p772
I00
sS'tnrv(yr)tosz'
p773
I01
sS'xvb'
p774
I01
sS'cdzl((()h)ubod'
p775
I00
sS'f(is)jk'
p776
I01
sS'h(h((r)ebraawfxoh)o)'
p777
I01
sS'cek(u'
p778
I00
sS'usro)tbfc'
p779
I00
sS'm()hg()bt'
p780
I01
sS'sm(obkcf()'
p781
I00
sS'()e((aevv)s'
p782
I00
sS'm(ggeo(i))t'
p783
I01
sS'omd'
p784
I01
sS'(sf(((llh))yg(rv)ar)zxsjuaa)vv'
p785
I01
sS'(sldqiw)fzq'
p786
I01
sS'(b((sij))'
p787
I00
sS'tpztc'
p788
I01
sS'uwh()e(zcjg)afd'
p789
I01
sS'w)si)x()eq'
p790
I00
sS'qxcaqwwccc)e'
p791
I00
sS'ekdo'
p792
I01
sS'rrr(auc'
p793
I00
sS'gceg'
p794
I01
sS'm(cbn)qlntr'
p795
I01
sS'v(((((xog)mew)ky)nwuub)od'
p796
I00
sS'e(mebr)'
p797
I01
sS'())(gg)q'
p798
I00
sS'rsyw)qb'
p799
I00
sS'gi(h(jnrbm)l)hi'
p800
I01
sS'wg()ffcdkvg'
p801
I01
sS'h()gvp'
p802
I01
sS'(awlc)a(xxmm)fne)cnjddozkssyst'
p803
I00
sS'x(eotyy)'
p804
I01
sS'k(nhkk)(u)'
p805
I01
sS'(qw)aj)'
p806
I00
sS'(vnudfz(pz(()skmzycwfqq)t)ytns'
p807
I00
sS'deciufu(k'
p808
I00
sS'bxo)rl((sbseac)zmb)d'
p809
I00
sS'pscetam()pz'
p810
I01
sS'(c(m)rbxojynm)qmrysu'
p811
I01
sS'b()ubv'
p812
I01
sS'wo()zxul(())v'
p813
I01
sS'nzw(j())ja'
p814
I01
sS'vu(yo)akjqzkw'
p815
I01
sS'(jvcxte'
p816
I00
sS'bcbob(vla)tlcmnvlvrfieyxn'
p817
I01
sS'()(m(oxjpj)etv'
p818
I00
sS'kcaa)pbz'
p819
I00
sS'((y)b)sjfp'
p820
I01
sS'pcpzxnut)m'
p821
I00
sS'dimvvqo'
p822
I01
sS'st(zd'
p823
I00
sS'b)k'
p824
I00
sS'u(y)o)qx'
p825
I00
sS'()xeqrrv'
p826
I01
sS'(pyai((yxeaqm)hb)mlinjpbphcnl)'
p827
I01
sS'upbneqos'
p828
I01
sS'ed((zgmx)qtw)'
p829
I01
sS'vlvicw'
p830
I01
sS'uh(wy)(k))ohp'
p831
I00
sS'kokmjs(())z'
p832
I01
sS'((c))a'
p833
I01
sS'b)x'
p834
I00
sS'ajjqd(dfw)ifn)'
p835
I00
sS'((hdhwi)z'
p836
I00
sS'na(et(((d(elk)vom))px))ne'
p837
I01
sS'xx)'
p838
I00
sS'(up)xjzsallabs'
p839
I01
sS'oyspn'
p840
I01
sS'bwmcit(vow)kllkfaktx'
p841
I01
sS'bqvomh(tdf)b'
p842
I01
sS'k(jygg)j'
p843
I01
sS'sikxl(ak(c))'
p844
I01
sS'u)r(xcmmj)r)ngj'
p845
I00
sS'kwzu((k)iaa'
p846
I00
sS'ck(u(g)ndn)umlababtv'
p847
I01
sS'pemg(xeomfqzzlw'
p848
I00
sS'(i(())(((d)qmuidvc)onjsum'
p849
I00
sS'((wsqwb)'
p850
I00
sS'jzzqgaaww'
p851
I01
sS'(pwgeuugjn)brnp'
p852
I01
sS'j(d))))'
p853
I00
sS'swpyzaeu'
p854
I01
sS'b(k(())gta)'
p855
I01
sS'(()jhcmq)'
p856
I01
sS'dtgl()()'
p857
I01
sS'sy(csphmppq)f)'
p858
I00
sS'ws(g(e)gfjoxhgb'
p859
I00
sS'(a))kqqq(t)ebg'
p860
I00
sS'do()jzdpdj'
p861
I01
sS'tni()dzj)'
p862
I00
sS'()(kskjox)g'
p863
I01
sS'(rswcltvjfbf'
p864
I00
sS'o(yyolrn)'
p865
I01
sS'zb((sayudd(q'
p866
I00
sS'e(zqq)yclrabaml'
p867
I01
sS'jh(((bp)malvzlg)z)od'
p868
I01
sS'g(ldkz'
p869
I00
sS'kw()zlen'
p870
I01
sS'kh()ejev(a)zd'
p871
I01
sS'()xqxiur'
p872
I01
sS'twlsb(aeaoh)fd'
p873
I01
sS'jgjc)rb)'
p874
I00
sS'fccc(caiuutizmlyfw)qzvuooagtzf'
p875
I01
sS'calakkfpqp'
p876
I01
sS'((eoc((u()aa))znuvoklax)q)qjma'
p877
I01
sS'(nl(cqh)qws)ch'
p878
I01
sS'qe)s'
p879
I00
sS'vim(x'
p880
I00
sS'vhlxijuf'
p881
I01
sS'cokicu()vdd'
p882
I01
sS'v(jnqeyi'
p883
I00
sS'laslfs'
p884
I01
sS'()n(ef(h)((zjrcvi))vlbdbjxxksa'
p885
I00
sS'()ak(exmk)ejl'
p886
I01
sS'v()sc'
p887
I01
sS'frjos(yx(s))'
p888
I01
sS'(zkn))su'
p889
I00
sS'bvdwj(tqd))'
p890
I00
sS'k(uc(gasr)nqrx'
p891
I00
sS'ymode)g))'
p892
I00
sS'd(j)q(x(z))pspy'
p893
I01
sS'(gzmn)ppvnvaep'
p894
I01
sS'(w((u(g)txrqhx)o)mlluvzdfsd)ft'
p895
I01
sS'n'
p896
I01
sS'u((oesql(())e'
p897
I00
sS'((bht()((qvrtwng)))e'
p898
I00
sS'iwb(kgcj'
p899
I00
sS'()(ptt)(sjikblfguqmkvjzea'
p900
I00
sS'gnd'
p901
I01
sS'ynz(t)eq'
p902
I01
sS'gnh'
p903
I01
sS'gni'
p904
I01
sS'ctoji((cvcmpdenwwzofiui)ddxzcm'
p905
I00
sS')fyc(gn)'
p906
I00
sS'c(giv)'
p907
I01
sS'ei(((w)n)lpl)'
p908
I01
sS'fxb(l)'
p909
I01
sS'(vcgmr(m))r'
p910
I01
sS'ele(chtl)isatof'
p911
I01
sS'xc)wtb'
p912
I00
sS'x(g)ykoyq'
p913
I01
sS'ih'
p914
I01
sS'c((eeuis'
p915
I00
sS'w((qru)bwfc'
p916
I00
sS'(ad)t(ggrqpm'
p917
I00
sS'tzd'
p918
I01
sS'ydcnfzz()fiw'
p919
I01
sS'(zyi)oompv'
p920
I01
sS'tauzxhjfp'
p921
I01
sS'mewmk(((e))'
p922
I00
sS'urb(ccd'
p923
I00
sS'(qfewb))fmgk'
p924
I00
sS'y((qw(qqdq)tbk)ox))r'
p925
I00
sS'vwq(h(()))y'
p926
I01
sS'ig()y'
p927
I01
sS'i(cyd)'
p928
I01
sS'dbcjcmk(((e)l)qnfbbtsw)ce'
p929
I01
sS'uo(()f(b)))h'
p930
I00
sS'icyggqlfwmykb)ttylnzswkdlroeeu'
p931
I00
sS'gm(aj)(sd(k)lvapqbktkmec)ltxhe'
p932
I01
sS'(prolkbog)fti'
p933
I01
sS')awfoj'
p934
I00
sS'ubhtx((lyy)bb'
p935
I00
sS'(itvaglieg)a'
p936
I01
sS'mntbsq(q()xqewpigyp)wmryl'
p937
I01
sS'xwkzrspbctpzxwh'
p938
I01
sS'evfg(()dccypz'
p939
I00
sS'jvls((pzu)lew)'
p940
I01
sS'(agk())yqp'
p941
I01
sS'ccooo)l'
p942
I00
sS'rbmwl'
p943
I01
sS'hnbbhqp'
p944
I01
sS'stt(yd(oc)))'
p945
I00
sS'((rfdge))wng'
p946
I01
sS'la(hgndbao)y'
p947
I01
sS'(rqnpqezo'
p948
I00
sS'lsypslaipevgmxc'
p949
I01
sS'xp(ybp'
p950
I00
sS'(qz()x)'
p951
I01
sS'kqsaqr'
p952
I01
sS'i)'
p953
I00
sS'i('
p954
I00
sS'(geeq)(afaqp'
p955
I00
sS'j((gggwhaxrnioyfkiwsayvune)))z'
p956
I00
sS'()o(d(nqpt'
p957
I00
sS'f(h((cr(x)rrwoeqb)))bfdyvk)rwh'
p958
I00
sS'ioaoxpudozs'
p959
I01
sS'(cpb)b'
p960
I01
sS'r(wa(w)(a)a)ks'
p961
I01
sS'cb(uqm)a'
p962
I01
sS'taohnt)ot'
p963
I00
sS's(fz((ld))fpnofgfgrzksfzihjsb)'
p964
I01
sS'kwcg()'
p965
I01
sS'deimi(t(vhaqtkimuyugusrpfbccxa'
p966
I00
sS'k(hppk'
p967
I00
sS'bnirajym'
p968
I01
sS'()c)rrb'
p969
I00
sS'(do)pgqhnt'
p970
I01
sS'xzbhaucq(tt)llpppg)njnnce'
p971
I00
sS'g(o()x)uvotfasqjbpbx'
p972
I01
sS'()(rs)gshsglchi'
p973
I01
sS'ygp)cnvu'
p974
I00
sS'(fhg())zmxl'
p975
I01
sS'jagun(yp)xbea'
p976
I01
sS'(rt)(s))swzbr'
p977
I00
sS'(c(c)kcxfep)p'
p978
I01
sS'pfsenklrxsauxtrhhbdwgyefi'
p979
I01
sS'zab()ct'
p980
I01
sS'm((rt(d)mxsx)tmbdqo)'
p981
I01
sS'drkx(())i'
p982
I01
sS'jp()wl'
p983
I01
sS'oa(r))ey'
p984
I00
sS'n(h)(rexb)'
p985
I01
sS'wpkti(mj)cxh'
p986
I01
sS'tbtj()ulz(a)'
p987
I01
sS'isnz(y((aiz)ts))kobb'
p988
I01
sS'vxzwibilzunetv'
p989
I01
sS'g(tx)c(()khzs)'
p990
I01
sS'((c)ixctdbh)'
p991
I01
sS'(f(z(col)(ttfha)wpz)hoq)x'
p992
I01
sS'a)qr)o'
p993
I00
sS'jjej(sax))en'
p994
I00
sS'flq()(()jpeeuvvstcf)lp)eoqllig'
p995
I00
sS'ml(jjqjaxeyshgfq)vsdidsff'
p996
I01
sS'()wy()f()lgdkw'
p997
I01
sS'zvq(()()se)'
p998
I01
sS'(xh(r((e()wllfywyhnd))i))smgnk'
p999
I01
sS'bjcq(itc)j'
p1000
I01
sS'v(ueqk)ww'
p1001
I01
sS'(ypre'
p1002
I00
sS'dggt(l(mepszdqej)brzvf))b'
p1003
I00
sS'hnsh)j'
p1004
I00
sS'z))))(v))ebnnst'
p1005
I00
sS'qptuo)bsszm'
p1006
I00
sS'poi(q((fllnnu)dgiq)a'
p1007
I00
sS'e(aq'
p1008
I00
sS'qx)'
p1009
I00
sS'had'
p1010
I01
sS'sxdbxm(a)t'
p1011
I01
sS'b(qi()'
p1012
I00
sS'd)du'
p1013
I00
sS'gewsjjj((uwwjzizuuhpw)hyyvyena'
p1014
I00
sS'xtqcqfmgqpho)'
p1015
I00
sS'nnix(tzfmgndvo'
p1016
I00
sS'hun)'
p1017
I00
sS'(fv(icxclmajbt))aoo))qjtq'
p1018
I00
sS'jnr(awj)'
p1019
I01
sS'ivem())mc'
p1020
I00
sS'tymkhp()om'
p1021
I01
sS'(ifsqpupjdezeifwq(tabok)cyzeml'
p1022
I00
sS'lct'
p1023
I01
sS'lh()xkrr(gkc'
p1024
I00
sS'srgz()ipo'
p1025
I01
sS'lcs'
p1026
I01
sS'ceoe(z)yg'
p1027
I01
sS'dkp(m)'
p1028
I01
sS'g()(jv)'
p1029
I01
sS'b)hhy'
p1030
I00
sS'lqsnqankyr'
p1031
I01
sS't(r((jltu))ddncomuzhsnkqdj)eit'
p1032
I01
sS'()ohad(n(u)fn)'
p1033
I01
sS'()umxqp'
p1034
I01
sS'ii(()t'
p1035
I00
sS'e(ymesn(ga)fk'
p1036
I00
sS')vd(t'
p1037
I00
sS'(bi)k(r(zi)c)e)'
p1038
I00
sS'jadtzaa'
p1039
I01
sS'jmiysrt()vu'
p1040
I01
sS'ax('
p1041
I00
sS'kc(l(sr)(i)q)joxhktx'
p1042
I01
sS'd'
p1043
I01
sS'blgbt)'
p1044
I00
sS'tqtiowvyxfm'
p1045
I01
sS'jp()qk)r'
p1046
I00
sS'wmp(j(an))k'
p1047
I01
sS'kh((snqqiimww)'
p1048
I00
sS'q(y)gs'
p1049
I01
sS'f(jjydm))td'
p1050
I00
sS')cg'
p1051
I00
sS'bc(ak'
p1052
I00
sS'(tq)bv)g'
p1053
I00
sS'((quosg)ru'
p1054
I00
sS'ut()xm(q)'
p1055
I01
sS'aetfo(e(h)h)'
p1056
I01
sS'(sz)u(((xgs)h))'
p1057
I01
sS'(f(z(col)(t(fha)wpz)hoq)x'
p1058
I00
sS'iitigblu)'
p1059
I00
sS'()abz(xpci)yvag'
p1060
I01
sS'zilcp(oeevj)taryjmxxnlglrpfcyb'
p1061
I01
sS'nv(tlpia)l'
p1062
I01
sS'g()cxx()'
p1063
I01
sS'vovv'
p1064
I01
sS'jpddhst'
p1065
I01
sS'h(kygq(u)fjavsijtxlab)cbu'
p1066
I01
sS'xlkz'
p1067
I01
sS'iauo((ct)nlzjb'
p1068
I00
sS'z(rmfr)i'
p1069
I01
sS'x()((l)uovwjqrcngxi)'
p1070
I01
sS'qv)((nfyaq))rcs'
p1071
I00
sS'hd(izhmmo(ba))'
p1072
I01
sS'(wo)(d'
p1073
I00
sS'((xuhqllwi)a'
p1074
I00
sS'l)eewuwii()'
p1075
I00
sS'kmpjs((bmih))))pzlyfokjuz'
p1076
I00
sS'y(mp'
p1077
I00
sS'jj)afh'
p1078
I00
sS'()cdvdeoaxqhug'
p1079
I01
sS'h()'
p1080
I01
sS'pl)'
p1081
I00
sS'mhtj'
p1082
I01
sS'ihgbewq()'
p1083
I01
sS'vb(gsh)oko'
p1084
I01
sS'dkw(h))'
p1085
I00
sS'wxn()xi'
p1086
I01
sS'ie()(()sxwju'
p1087
I00
sS'nzfpiwb(m)'
p1088
I01
sS'zt()(mxxvv)e'
p1089
I01
sS'iiljfms(w())aw'
p1090
I01
sS'((y)mzubxqa))ar'
p1091
I00
sS'l(j)ah(o(jc)di)'
p1092
I01
sS'szu()mcub()'
p1093
I01
sS'((tawsiyn)pykapegpkbofyep'
p1094
I00
sS'(zqi(h(vcc)t))n'
p1095
I01
sS's(r)dkr'
p1096
I01
sS'((up'
p1097
I00
sS'qqppo'
p1098
I01
sS'g(q(tkdsb()mf'
p1099
I00
sS'jb(ll)((i())zsy'
p1100
I00
sS'cbnnsh'
p1101
I01
sS'hdta(xtle)'
p1102
I01
sS'u((syk)'
p1103
I00
sS'atsi(bhktyit)ta'
p1104
I01
sS'(((xy)u'
p1105
I00
sS'duj())qxlk((uz)hhjya))ozdbbrdd'
p1106
I00
sS'(ixlz)npf'
p1107
I01
sS'e(sz'
p1108
I00
sS'cu(t)p'
p1109
I01
sS'()o(rr)'
p1110
I01
sS'ivd((wlhgisp)g)'
p1111
I01
sS'(t)s((bpnbwewohlmgll))ahb'
p1112
I01
sS'(fnhwk()u(jdg))onibb'
p1113
I01
sS'ckn(jwocjyzgdu'
p1114
I00
sS'ihcc(wy)ffulmdzmjxpv'
p1115
I01
sS'uwed()ss(twhnnfi)okm'
p1116
I01
sS'bjuvtjjtq)'
p1117
I00
sS'(zp)k'
p1118
I01
sS'()uepsdrsmwi'
p1119
I01
sS'(yg)))'
p1120
I00
sS'ne(d((nu(m)ckkbv)zbnaqtzvd)iqu'
p1121
I00
sS')qgj(x)uq'
p1122
I00
sS'pfpl)'
p1123
I00
sS'vhqlep'
p1124
I01
sS'(dqk(t)pvvgpsgfweexe'
p1125
I00
sS'omiphuuekbl'
p1126
I01
sS'jx(xmv()d()'
p1127
I00
sS'yk('
p1128
I00
sS'gtrjso(cbgsacbv)vheuzvpb)'
p1129
I00
sS'o'
p1130
I01
sS'eiaomyh(((fzwkeq)e)zloji)'
p1131
I01
sS'ju(youp)m'
p1132
I01
sS'tv(y(((fuw)c)tqfpxajqwg))'
p1133
I01
sS'hopd)wvlvcoqwg'
p1134
I00
sS'r(p(h()mz)ilqptxaxvsrrtyi'
p1135
I00
sS'yynz(tvjeqq'
p1136
I00
sS'()fgew'
p1137
I01
sS'avqsg'
p1138
I01
sS'(()jb(mmywk)v'
p1139
I00
sS'(upmiip'
p1140
I00
sS'rq((p))z'
p1141
I01
sS'mbl'
p1142
I01
sS'(recrb()qbc)qxq'
p1143
I01
sS'i()ie'
p1144
I01
sS'i(wwjuwisv)hj'
p1145
I01
sS'mbj'
p1146
I01
sS'(bnq(()jplcx)'
p1147
I00
sS'pjsqfney'
p1148
I01
sS'(v(istrv((tqp)esamvi)wj))'
p1149
I01
sS'm((ma)n)fmqpny'
p1150
I01
sS'(uo'
p1151
I00
sS'(afns'
p1152
I00
sS'tgpkj((xxqmab)g'
p1153
I00
sS'ihz())yi)vxppj'
p1154
I00
sS'wjpsx'
p1155
I01
sS'(txm(e(z)))'
p1156
I01
sS'(ze)cfcv'
p1157
I01
sS'mby'
p1158
I01
sS'pxciz'
p1159
I01
sS'wbbbgrs'
p1160
I01
sS'oilwy'
p1161
I01
sS'nzc(qs(pgwvw)twks)pv'
p1162
I01
sS'mbp'
p1163
I01
sS'(no(y(zie)krnk)))jmbadjjj'
p1164
I00
sS'waqexi))qj'
p1165
I00
sS'mbs'
p1166
I01
sS'v(kw((r)()igyyl)qtykezivn)kgbr'
p1167
I01
sS'(((((dls(mybniya)))))b)czyyraa'
p1168
I01
sS'iqnem(ul)'
p1169
I01
sS'(qx(rzjulldz)ydbzfg)'
p1170
I01
sS'f(qjvscl(wvo'
p1171
I00
sS'((g)re'
p1172
I00
sS'imcyd((o)qhbwrdtknu)aracj'
p1173
I01
sS'cchhslbb)mmfq'
p1174
I00
sS'(du)(w()erpw)))jivfk'
p1175
I00
sS'cd(qxng)zp'
p1176
I01
sS'((((oppzv(s))bzczebcu)h)ap))sc'
p1177
I00
sS'ndckundegg(w'
p1178
I00
sS'sw)hgi(()lo)t'
p1179
I00
sS'(dxeeqnk'
p1180
I00
sS'xw)'
p1181
I00
sS'skvsoefkpfo'
p1182
I01
sS'uhck(((n)(()rwn)alkk'
p1183
I00
sS'cl((xyfbr)reiknmoyypvbjyk'
p1184
I00
sS'jflzqey(k(qxb)'
p1185
I00
sS'(jrc(yr()jo)r)g'
p1186
I01
sS'xszvlsuk'
p1187
I01
sS'myhw'
p1188
I01
sS'kioig('
p1189
I00
sS'tfrjyfm)qs)n'
p1190
I00
sS'(at)vcclu'
p1191
I01
sS'dhz(e)osmjkxqay'
p1192
I01
sS'spbbzhuk(()ww'
p1193
I00
sS'zuwthe'
p1194
I01
sS'bbbjux)ppo'
p1195
I00
sS'rveqn('
p1196
I00
sS'()esycq)'
p1197
I00
sS'aw()(g)xb'
p1198
I01
sS'hw((pynnias))d'
p1199
I01
sS'(cok(haajysywdtt)pr)bol)i'
p1200
I00
sS'fuoe(c((il(ve)i)ooaf'
p1201
I00
sS'y(hc()rz)ps'
p1202
I01
sS'f(a)r'
p1203
I01
sS'm(uffchvgvg)'
p1204
I01
sS'p(su'
p1205
I00
sS'd((b)zpgz)ty'
p1206
I01
sS'(v(d)fe)nj'
p1207
I01
sS'sq(sj'
p1208
I00
sS'go(prdkns(rbdikstgniih)ggkgm)m'
p1209
I01
sS'ym(hvt)vroo'
p1210
I01
sS'lainexk(sw)r)d'
p1211
I00
sS'azc'
p1212
I01
sS'((vpe()gj)))fq'
p1213
I00
sS'v(myv)'
p1214
I01
sS'qu(dnikz(di))kkbx)nz'
p1215
I00
sS'(j(al((vho(i)f)))snsst)hcgha)u'
p1216
I00
sS'dtddx((x(sbfgwv)rur)'
p1217
I00
sS'(p)aylei'
p1218
I01
sS'iy(z'
p1219
I00
sS'vgh(rzg)(zjcpc)'
p1220
I01
sS'(cd'
p1221
I00
sS'hpr))'
p1222
I00
sS'azp'
p1223
I01
sS'(tl)mmp)pkr'
p1224
I00
sS'r(px)m'
p1225
I01
sS'()ffyk'
p1226
I01
sS'(cn'
p1227
I00
sS'oqk)d'
p1228
I00
sS'h(s'
p1229
I00
sS'uzm((em())pi'
p1230
I00
sS'lucrak)uh'
p1231
I00
sS'e()(d))(jvhhhccfccqrr)rpn'
p1232
I00
sS'rpy(kjeqqdn(hwo)))vefwoyp'
p1233
I00
sS'(l(s(hlkjtpyrmm)b)ab'
p1234
I00
sS'wh(sl(m))tlr'
p1235
I01
sS'zp)'
p1236
I00
sS'vwn'
p1237
I01
sS'aijov)evtvqk'
p1238
I00
sS'nie(oukb)'
p1239
I01
sS'e(ufy((ladfmlv)xxulnstkgk'
p1240
I00
sS'((dp)gao'
p1241
I00
sS'npf()yj'
p1242
I01
sS')))'
p1243
I00
sS'sphm((((gl)yjzffkm))'
p1244
I00
sS'c)ynzy'
p1245
I00
sS'(o)ptcde(of)s'
p1246
I01
sS'(daex(dnz(y)gjtg)gkfstyuwq)elo'
p1247
I01
sS'q((p(nj)m(rli)inh)fzglkft'
p1248
I00
sS'm(hyyei)oh)'
p1249
I00
sS'x)qllf'
p1250
I00
sS'c)d'
p1251
I00
sS'y(((ctati(ua)ocr))ai)gcnx'
p1252
I01
sS'h(gk'
p1253
I00
sS'uuf(uq(zicmkpv)epikwt)zhaunfih'
p1254
I01
sS'dcswfilr'
p1255
I01
sS'si())cvv'
p1256
I00
sS'ga)()mdd'
p1257
I00
sS'))d((b)zpkgz)ty'
p1258
I00
sS'dltvpknc)rbcus'
p1259
I00
sS'rk))'
p1260
I00
sS'jjmmkskrsuccozgyp)koahrjv'
p1261
I00
sS'nrrwzbxiz)(p)m'
p1262
I00
sS'mnc(tv)utx'
p1263
I01
sS'enr)bkfthhs'
p1264
I00
sS'(scf(ctz)fn)'
p1265
I01
sS'v(swb()u)'
p1266
I01
sS'cbzc'
p1267
I01
sS'lqodtq(whwxtbmlxdkti'
p1268
I00
sS'uu(a(a(bm(qadgw)sbwngv)yj)iwd)'
p1269
I01
sS'hxphhqvkv(znn)j'
p1270
I01
sS'((xg)kves'
p1271
I00
sS'pzmg)qp'
p1272
I00
sS'shm()q(swl())z)'
p1273
I00
sS'kvw'
p1274
I01
sS'ufivtxk(cvrrkpg'
p1275
I00
sS'((q)((a)etvn)yr)wtff'
p1276
I01
sS'(d((b)mszi)ptdahhd(v'
p1277
I00
sS'pqgrtpmdp'
p1278
I01
sS'vhcl'
p1279
I01
sS'n('
p1280
I00
sS'ejpyxjxqjphnot'
p1281
I01
sS'fsb(p)usk(sp)dn'
p1282
I01
sS'mm)z'
p1283
I00
sS'((t(tnj))wskjwdti)sx'
p1284
I01
sS'wr((qv)gqv'
p1285
I00
sS'kc((txxclh)tvpoc)kix'
p1286
I01
sS'((xyyuub)'
p1287
I00
sS'yo((g)a(ammetl)'
p1288
I00
sS'(huczpekfrxpn(xo(fenebmatjaxma'
p1289
I00
sS'()hvwfobza'
p1290
I01
sS'(wfopncn'
p1291
I00
sS'd(i(jg)djc)(ms'
p1292
I00
sS'brmg(lrhq)q'
p1293
I01
sS'x(s)'
p1294
I01
sS'vup(oux'
p1295
I00
sS's(j)gur'
p1296
I01
sS'lazq()()c'
p1297
I01
sS'(()((xqmnmxyuje))ekxtdni)'
p1298
I01
sS'vpyxq(d)fvpcygydcbmfqbofh'
p1299
I01
sS'hzyurp(xkkqbd)doyl)z'
p1300
I00
sS's(neis)bofz'
p1301
I01
sS'n((xi)ksbwri'
p1302
I00
sS'iiun(((p))e'
p1303
I00
sS'gsnlus'
p1304
I01
sS'w(cescw(a'
p1305
I00
sS'g((ii)wisxjl'
p1306
I00
sS'gcpsthuce)gvqly'
p1307
I00
sS'osp'
p1308
I01
sS'((lsrmr)am)nsusvxezf'
p1309
I01
sS'asshk'
p1310
I01
sS'gr(tml(y(of)lhb)zoqxey)pm'
p1311
I01
sS'iwmlqj'
p1312
I01
sS'h))atgvuugjmkmf'
p1313
I00
sS'f)ky'
p1314
I00
sS'(ibbb'
p1315
I00
sS'()mfurryony'
p1316
I01
sS'rgtozqcmke'
p1317
I01
sS'(pgnskr)xnz'
p1318
I01
sS'b(idkovjsj)fp'
p1319
I01
sS'vopr))nwxb'
p1320
I00
sS'x(cjk)mxng(t'
p1321
I00
sS'(rt)(s)swzbr'
p1322
I01
sS'uptjpgournfg'
p1323
I01
sS't(j))z'
p1324
I00
sS'jze)cfcv'
p1325
I00
sS'hern)yn(me)'
p1326
I00
sS's(qj)qn'
p1327
I01
sS'(kg(vjx)yb)'
p1328
I01
sS'rgge(()txmgbd'
p1329
I00
sS'r(xdop)'
p1330
I01
sS'tnsdwgy(x)'
p1331
I01
sS'pb(facadz)ed)v'
p1332
I00
sS'wt((((mjq)a))t)'
p1333
I01
sS'vr(gllh())qk'
p1334
I01
sS'chnbyarao'
p1335
I01
sS'()y)oo'
p1336
I00
sS'ktgy)rtyuhrvcegcztn)ft((k(hkfn'
p1337
I00
sS'dfpwth)k'
p1338
I00
sS'cse()kdmk'
p1339
I01
sS'qblt(i)xhkbug)'
p1340
I00
sS'l(n)nd)(f'
p1341
I00
sS'u(oesqz())i'
p1342
I01
sS'(cg)a'
p1343
I01
sS'rhm((f)z)pz'
p1344
I01
sS'nr((r)c)cvyazj'
p1345
I01
sS'nnirhclxn'
p1346
I01
sS'j((()ubvvv'
p1347
I00
sS'yfccnzz)fiw'
p1348
I00
sS'a(tt'
p1349
I00
sS'(zmkk'
p1350
I00
sS'xduzcwlldebdkiynb)(zdsvtgjvurp'
p1351
I00
sS'((a)qewh(j)nvccab)yh'
p1352
I01
sS'bql()'
p1353
I01
sS'an()ztvtfjx)i'
p1354
I00
sS'drkx((()c)oz'
p1355
I00
sS'uh(w)(k)ov'
p1356
I01
sS'd(ul(ozuzngvotb)b)urg)ycj'
p1357
I00
sS'iiky)aggddddcs'
p1358
I00
sS'aowwtphcu'
p1359
I01
sS'dlphlj'
p1360
I01
sS'()yq)'
p1361
I00
sS'a)val'
p1362
I00
sS'rq(tlr))'
p1363
I00
sS'yqwlbztgsqc'
p1364
I01
sS'ooic)i'
p1365
I00
sS'()zy'
p1366
I01
sS'(morzmd)ugh'
p1367
I01
sS'hljpeibv'
p1368
I01
sS'kpk(cv)h)'
p1369
I00
sS'()zr'
p1370
I01
sS'k(zssbc(a(bsv))c)rfx'
p1371
I01
sS'p'
p1372
I01
sS'()zm'
p1373
I01
sS'o(g(nwno)f'
p1374
I00
sS'r(((pfp)sj)xfauwpttyazqqxqj)ig'
p1375
I01
sS'vfqvoavkjcquka'
p1376
I01
sS'()r(b)q'
p1377
I01
sS'g()w(dey)'
p1378
I01
sS'qpsoyu'
p1379
I01
sS'(bw())ni'
p1380
I01
sS'y(()pdxhh)i'
p1381
I01
sS'mnadtv)utx'
p1382
I00
sS'(xvd'
p1383
I00
sS'nz(y(nooo))qjc'
p1384
I01
sS')ydd'
p1385
I00
sS'(fk)alzbb((xlpbxxx)w'
p1386
I00
sS'z(tjm)tdwnt'
p1387
I01
sS'l)fl'
p1388
I00
sS'saure(f((w))'
p1389
I00
sS'p(j)mw'
p1390
I01
sS'unru'
p1391
I01
sS'rl()m'
p1392
I01
sS'peu(ge)))'
p1393
I00
sS'm(seqj)jgcj'
p1394
I01
sS'v(sbqpapgq'
p1395
I00
sS'q((ihg)euqp)'
p1396
I01
sS'(bkne)'
p1397
I01
sS'ex(ris)jbe'
p1398
I01
sS'zrw'
p1399
I01
sS'lfr((llg))xgqbtcdgkd'
p1400
I01
sS'buc)'
p1401
I00
sS'v(u)ql(p)'
p1402
I01
sS'sxlszjs('
p1403
I00
sS'shdzkiuyo'
p1404
I01
sS'm(erqnpw)p'
p1405
I01
sS'((c)((szgz)a)ngkm)gthcyuj'
p1406
I01
sS'(zzvna(nou)t)tqqptutotveavkxxu'
p1407
I01
sS'pmje)s'
p1408
I00
sS'zre'
p1409
I01
sS'egrb((ozch))'
p1410
I01
sS'h()wfvq'
p1411
I01
sS'oxp(ngwcynaf)do'
p1412
I01
sS'qzx(ewbqs'
p1413
I00
sS'tmyqqk(t((ppx)))glkvarxhd))xkm'
p1414
I00
sS'zrl'
p1415
I01
sS'lbxmmsxk'
p1416
I01
sS'ohcfnc)'
p1417
I00
sS'l(((qbbrocc)cv'
p1418
I00
sS'bti(lwmvsgvfcfwzcjp)'
p1419
I01
sS'(ctacdwdc'
p1420
I00
sS'dcmbg(z)ke'
p1421
I01
sS'w(si)x()eq'
p1422
I01
sS'n)ffof'
p1423
I00
sS'hkzkljawen'
p1424
I01
sS'wrs))'
p1425
I00
sS'z((d)yeu)'
p1426
I01
sS'wztl'
p1427
I01
sS'(kpvqbct'
p1428
I00
sS'ddrr((()ezq)kodsxixx'
p1429
I00
sS'q(e)'
p1430
I01
sS'xe(lvhi(j)lhb'
p1431
I00
sS'(rdvzqy(r'
p1432
I00
sS'b(z(bl)tcfxvrrc'
p1433
I00
sS'wi(vjxfgbfpj)'
p1434
I01
sS'cofmrkvy'
p1435
I01
sS'itgqxdfdkx)dboezituuzvvwmslfjt'
p1436
I00
sS'm(v()avbcwym))h'
p1437
I00
sS'j((()a(a)q(x)kx'
p1438
I00
sS'oce(ev'
p1439
I00
sS'(fid)s'
p1440
I01
sS'ogd(bb)jbjxx'
p1441
I01
sS'tvtxx(((n))il'
p1442
I00
sS'p())e())gi((eipcss))mumvlphsje'
p1443
I00
sS'aqr((ljd)en'
p1444
I00
sS'iun(((p)))e'
p1445
I01
sS'onbgv((nwc))t'
p1446
I01
sS'klgoda'
p1447
I01
sS'uflxw()v'
p1448
I01
sS'((o)))exrdddb'
p1449
I00
sS'ord(zf()as)cz'
p1450
I01
sS'uzl'
p1451
I01
sS'rah()'
p1452
I01
sS'uuyec(zmaal))n'
p1453
I00
sS'wyahws'
p1454
I01
sS'(zaulv)q'
p1455
I01
sS't((vemb)ny))vu'
p1456
I00
sS'uzd'
p1457
I01
sS'lytvjow(eyq)le'
p1458
I01
sS'uzg'
p1459
I01
sS'glp((h(gmc)w)mwmcgqtj)pas'
p1460
I01
sS'qs(excxj)s'
p1461
I01
sS'jm(()abs'
p1462
I00
sS'brmf'
p1463
I01
sS'(ju)jya'
p1464
I01
sS'bw(a)kantjm(e'
p1465
I00
sS'd(p(ptrrd(nk)vy))m)f'
p1466
I00
sS'((xmwujnz)wmdmggilzr'
p1467
I00
sS'eupa(t)ey'
p1468
I01
sS'(x()oxw)x'
p1469
I01
sS'r(((hg()sngvbpqzv)qvz)ob)'
p1470
I01
sS'((mpq)yt)lijcyxcmvgtymixa'
p1471
I01
sS't()sus'
p1472
I01
sS'vdn(rz))vvwwntt'
p1473
I00
sS'nqtm((p)fw'
p1474
I00
sS'()(gs)bqgpfix'
p1475
I01
sS'rf(nkgdivybpqvhuldkw'
p1476
I00
sS'n()g(q)(e)hpupvkmfnwdzvze'
p1477
I01
sS'pwnhxou'
p1478
I01
sS'zvq(()ha)se)'
p1479
I00
sS'(dc'
p1480
I00
sS'oee'
p1481
I01
sS'(u(rqd(okrbgii)vpe)fnl)jw'
p1482
I01
sS'(c(krsc)nqpvav)'
p1483
I01
sS'qtzw(nb)xx'
p1484
I01
sS'dcmqj(zke'
p1485
I00
sS'(dk'
p1486
I00
sS'((()k))'
p1487
I01
sS'qng)p'
p1488
I00
sS'((v)'
p1489
I00
sS'bsvdemxcz'
p1490
I01
sS'bckdtwgbkjlwmc'
p1491
I01
sS')b(m)'
p1492
I00
sS'ok)nfqgjxxdy'
p1493
I00
sS'yvxrjen'
p1494
I01
sS'qnlzs'
p1495
I01
sS's(ukclgrrwjf'
p1496
I00
sS'wncy(hqy)'
p1497
I01
sS'a(()ap)kykusby'
p1498
I01
sS'q)'
p1499
I00
sS'(l()(ng(((jghj)cegc)c))ucjjrrc'
p1500
I00
sS'(nrcty)'
p1501
I01
sS'jkxna'
p1502
I01
sS'yrxn)nqei'
p1503
I00
sS'wvf'
p1504
I01
sS'()((wlhimra)k)c'
p1505
I01
sS'm(mn)r)'
p1506
I00
sS'r)hhkab(w)w'
p1507
I00
sS'ff)gh'
p1508
I00
sS'()xvkarlmxg'
p1509
I01
sS'(gd)j'
p1510
I01
sS'fls'
p1511
I01
sS'fffjjj(muyyz()k)mrkqtzd)y'
p1512
I00
sS'ibd'
p1513
I01
sS'githr'
p1514
I01
sS'tcblp)pnn'
p1515
I00
sS'k(pjzh)tehprn'
p1516
I01
sS'p(o(ppi))v'
p1517
I01
sS'(yc)g'
p1518
I01
sS'd(edqv()cx)cp'
p1519
I01
sS'fclgepmo'
p1520
I01
sS'(()pz))(z)kexp)pafhwhtmwx'
p1521
I00
sS'azttlimtid'
p1522
I01
sS'hzw(vrq'
p1523
I00
sS'(zr)jhcmq)'
p1524
I00
sS'ryy((kk)zavvbbv'
p1525
I00
sS'((wc)l'
p1526
I00
sS'txrto(np)y'
p1527
I01
sS'acl(ayqh)zy'
p1528
I01
sS'(bwq))ni'
p1529
I00
sS'e(o()ynixuj)trr'
p1530
I01
sS'z()slfunyvz'
p1531
I01
sS'()s(((cauxafi)y)whjzhv)rl'
p1532
I01
sS'xls(ozckkre)w)'
p1533
I00
sS'(((cci(((hcij))))irutljg))vcon'
p1534
I01
sS'z(crbf(cu)paqkekyulz'
p1535
I00
sS'q(((nkeeppeeqyddbibzelhhvva)hy'
p1536
I00
sS')(c'
p1537
I00
sS'fddhc(iby)'
p1538
I01
sS'kkfu)'
p1539
I00
sS'bigvwm(gjcnj'
p1540
I00
sS'jvwk()yit'
p1541
I01
sS'cqfbmgzxzeksadq'
p1542
I01
sS'nqzyneasklohv)p'
p1543
I00
sS'o()clygh'
p1544
I01
sS'xzc(qd)jlccisb'
p1545
I01
sS'(o)e(jlb(rrq)fb(qhzw'
p1546
I00
sS'(xxse)tmwoufb'
p1547
I01
sS'lcmu(ndkmtuu))'
p1548
I00
sS'(((gnyf)o'
p1549
I00
sS'ojqfpl())b'
p1550
I00
sS'(xbv)a)ntxfoztdtndrsvsmhn'
p1551
I00
sS'o((ykx)zbxmcz'
p1552
I00
sS'effh(k((wnul)bxml)dwbvf)c'
p1553
I01
sS'(()y(((()p))hozazyr))zuvi'
p1554
I01
sS'(cezq)y(r)'
p1555
I01
sS's('
p1556
I00
sS'uu(()jnp)pjswy'
p1557
I01
sS'h(ilw((s)(rdfezpd)yc))dyt'
p1558
I01
sS'htx(n)jil'
p1559
I01
sS'g()txwkqno'
p1560
I01
sS'iiein(a(e(abtzpnfffxm)qmmm)g))'
p1561
I00
sS'(b(tjmznnq(xqqyxdlkcuusr)lnnzw'
p1562
I00
sS'ndg(cklzlgjvm)l'
p1563
I01
sS'vjtupmvf'
p1564
I01
sS'x((luhfm)zt'
p1565
I00
sS'gf(kezsu(gly))'
p1566
I01
sS'my()bnbfh'
p1567
I01
sS's(jck'
p1568
I00
sS'rmy)()im'
p1569
I00
sS')fpy()ttf'
p1570
I00
sS'noc)'
p1571
I00
sS'(qmtx(f(()()sixx)fya'
p1572
I00
sS'doqe)'
p1573
I00
sS'dd)rrbha)m'
p1574
I00
sS'akdi(lpd)xzcu'
p1575
I01
sS'umpyt)'
p1576
I00
sS'a((vrk)y)'
p1577
I01
sS')()'
p1578
I00
sS'rihsw'
p1579
I01
sS')ngjy'
p1580
I00
sS'zwllk(wgk'
p1581
I00
sS'g()yw(deybp'
p1582
I00
sS'(tyyppqxp)gwmyffx(qo'
p1583
I00
sS'(j(xeq)fc)s'
p1584
I01
sS'fniou(vohxnzcahl(umqoswebmalgc'
p1585
I00
sS'zoeos'
p1586
I01
sS'afhpn'
p1587
I01
sS'js(ys)n'
p1588
I01
sS'qaelx((g))fzo'
p1589
I01
sS'mvpsws)(x)'
p1590
I00
sS'xvkii(wb)pu'
p1591
I01
sS'sp'
p1592
I01
sS'm(zjcydwd)jtuhl'
p1593
I01
sS'q'
p1594
I01
sS'selbggnedd'
p1595
I01
sS'nkyw(hjjh'
p1596
I00
sS'bc(mti)ir(nnb)'
p1597
I01
sS'sl'
p1598
I01
sS'gjh(n()oy(l)pdefzygl'
p1599
I00
sS'xrhucuioauvm'
p1600
I01
sS'ukwq((u((kac)rblt)nd)))pq'
p1601
I00
sS'y(jlw'
p1602
I00
sS'eep(fluedf)'
p1603
I01
sS'mc(((txk(rffnlpurgpy)fhmmw(sr)'
p1604
I00
sS'((u)jtm)qkdyks'
p1605
I01
sS'(kxpr(sl)ga'
p1606
I00
sS'(((e)ipvorf'
p1607
I00
sS'(n(jkrvynusqoe)'
p1608
I00
sS'm(gv)sb'
p1609
I01
sS'nkjjjjjcixkk((h)anza'
p1610
I00
sS'xnvr((j)vzwmwf'
p1611
I00
sS'ytbev(fh(e))'
p1612
I01
sS'(sjpxxo)'
p1613
I01
sS'((uua(mckonaakrwacpw)ywh)'
p1614
I00
sS'ahcp(go(rweoj)vbtorozatoahbhah'
p1615
I00
sS'gtldwqk'
p1616
I01
sS'pfbg(cxxppdqmik'
p1617
I00
sS'l(wor)xeyiv'
p1618
I01
sS'eg(fphtyok)we'
p1619
I01
sS'xrqo)'
p1620
I00
sS'(gmz)lz(gc'
p1621
I00
sS'tsarvkxrdbt'
p1622
I01
sS'to(e((vemi(qjpqim)x)c)wusqcj))'
p1623
I00
sS'ck(ol()kdnrxgrdo)xzm'
p1624
I01
sS'ynvhtlqslhjt(vwhn)u)()zncy(iie'
p1625
I00
sS'asp()yzfzcl)vt'
p1626
I00
sS'()k)'
p1627
I00
sS'((s(yor)mnn)lm)'
p1628
I01
sS'c()'
p1629
I01
sS'((ve)ggh'
p1630
I00
sS'bdbjjb(jegtk'
p1631
I00
sS'iw()()tmk'
p1632
I01
sS'taycriyxpry'
p1633
I01
sS'jiv'
p1634
I01
sS'jiw'
p1635
I01
sS'vum()vb(v))'
p1636
I00
sS'h)dlex(wrt)'
p1637
I00
sS'jir'
p1638
I01
sS'ofal()lamx'
p1639
I01
sS'nozssuf(swee'
p1640
I00
sS'onicwrg()hdk'
p1641
I01
sS'ccq)'
p1642
I00
sS'ww)b'
p1643
I00
sS'crmgqmxra'
p1644
I01
sS'oqzn'
p1645
I01
sS'(xotlrvcu)'
p1646
I01
sS'uitw)ueuu'
p1647
I00
sS'bhgd(w(((num)kl))ecvppl)s'
p1648
I01
sS'(ulbeafy)'
p1649
I01
sS'(qmoe'
p1650
I00
sS'jbkq)'
p1651
I00
sS'zn(((kmvnlli)nwis)mqgahef'
p1652
I00
sS'yy()'
p1653
I01
sS'sv(s)kp())'
p1654
I00
sS'g(((iunu((bxipurodpkxc))n)euvt'
p1655
I00
sS'jvtnws))'
p1656
I00
sS'qd(xco)nzd'
p1657
I01
sS'((el)'
p1658
I00
sS'(o(xtdbd)cp)bdrbzifi'
p1659
I01
sS'(cf()q)nb'
p1660
I01
sS'b(y())j'
p1661
I01
sS'izneqjkc'
p1662
I01
sS'rtuygajlme'
p1663
I01
sS'luf(gf)khebvz'
p1664
I01
sS'njc)m(llmss)'
p1665
I00
sS'l(dt)'
p1666
I01
sS'xz(((hgnm)ftq'
p1667
I00
sS'ia(b))'
p1668
I00
sS'z)s'
p1669
I00
sS'(y)jno(rp'
p1670
I00
sS'eeirqq'
p1671
I01
sS'rmuwt)g'
p1672
I00
sS'izxh(haas)ffj'
p1673
I01
sS'njz(r)'
p1674
I01
sS'iswaq)'
p1675
I00
sS'vwwji(pqlrzf)dvmauoq'
p1676
I01
sS'((rfbi(ft()))wh'
p1677
I00
sS'(shn)'
p1678
I01
sS'zmfs(((((llb)b)yll)zhe)rke)oeo'
p1679
I01
sS'i((vs)n)deu'
p1680
I01
sS'(kkncoixjpikzdbvyqrwcaqroxyddg'
p1681
I00
sS'ey(jdkqt(l)aaa'
p1682
I00
sS'(d((g))ywz)vff)'
p1683
I00
sS'z)h'
p1684
I00
sS'(()fgevb'
p1685
I00
sS'w(f'
p1686
I00
sS'(f)tcsaka(k)t'
p1687
I01
sS'pdhohuyeiutc'
p1688
I01
sS'cse))kdmto'
p1689
I00
sS'jnmfd(kagyo)amwvjq)uwytev'
p1690
I00
sS'qbtzb'
p1691
I01
sS'(mkd(nxi(loqjekdulae)tdc)f))eh'
p1692
I00
sS'(fodccaea)xkji'
p1693
I01
sS'u(u(isn)(ag)kovk)npuhdmffccamm'
p1694
I01
sS'le)hu'
p1695
I00
sS'zegicd'
p1696
I01
sS'(y)y(obe)ryyby'
p1697
I01
sS'(b)mzux'
p1698
I01
sS'dlfckug'
p1699
I01
sS'(ne)'
p1700
I01
sS'f(nf)n'
p1701
I01
sS'icclmol())pachuuw)gelylkk'
p1702
I00
sS'cxqyxhsaf(uvqhwdczagkdrzdg)swb'
p1703
I01
sS')wy'
p1704
I00
sS'fooeeee)'
p1705
I00
sS'q(onk(oe)vpiku)itimx'
p1706
I01
sS'oytdu'
p1707
I01
sS'z(z)fyp'
p1708
I01
sS'hrie(vld)fy'
p1709
I01
sS'(eejmnwwjg'
p1710
I00
sS'(cpa()qzpzthcw'
p1711
I00
sS'gp(gsfs)q'
p1712
I01
sS'(m(hp)dzgma)'
p1713
I01
sS'lj(yhj))ppo'
p1714
I00
sS'htknbkkbvtqr)'
p1715
I00
sS'dyqg(g(i)wrbkewqw)lcysuby'
p1716
I01
sS'mg(kl)'
p1717
I01
sS'd(sieeet'
p1718
I00
sS'vj)'
p1719
I00
sS'lypv)tbwgzeaofh)nklnkqyyshswbr'
p1720
I00
sS'(uz'
p1721
I00
sS'ae(foe(z()))jst'
p1722
I01
sS'zggx(ba)'
p1723
I01
sS'w(itbmwsc'
p1724
I00
sS'zs(bi)b)bpryygvzjhqeetdfg'
p1725
I00
sS'(m(t))'
p1726
I01
sS'prnoc'
p1727
I01
sS'c(()s)srxppzk'
p1728
I01
sS'v(u(ykx)j)'
p1729
I01
sS'ettvskskv()f'
p1730
I01
sS'apis(yvy)wk'
p1731
I01
sS'puzvdlgmar'
p1732
I01
sS'fx)wff'
p1733
I00
sS'(wy(ezmnl)o))m'
p1734
I00
sS'hga(()q)'
p1735
I01
sS'(er))b'
p1736
I00
sS'ogd(bbbnjbjzo'
p1737
I00
sS'(x()oxnajx'
p1738
I00
sS'zwmnjbfhv'
p1739
I01
sS'(qxrz)ulldz)rfdbzfg)'
p1740
I00
sS'mx(hobb)vds'
p1741
I01
sS'vqk(s)ob(ryw)ne'
p1742
I01
sS'qgub'
p1743
I01
sS'(s)jcpw(b)ye'
p1744
I01
sS'qhaun()hz()'
p1745
I01
sS'b(hbx((v)onag)q'
p1746
I00
sS'lvcunk(rzyqqcqeimbbbi(a)qq)ewv'
p1747
I01
sS't(ikt((gk)gre)'
p1748
I00
sS'rcgdiy)rm'
p1749
I00
sS'(uunik)svaoth'
p1750
I01
sS'v(flbij)'
p1751
I01
sS'(m(c(p)xrm))vl'
p1752
I01
sS'p(cc)(a)h)hghlzaxsvh'
p1753
I00
sS')aa'
p1754
I00
sS'dr(bymk)zw'
p1755
I01
sS'za)sugqmmxk'
p1756
I00
sS'ji()(ij)ir'
p1757
I01
sS'zya(c(((nb)pdxtxfn)nyuc)v'
p1758
I00
sS'u(wsj(nfubuhlfteah)adf))u'
p1759
I00
sS'(lvlqbq'
p1760
I00
sS'eph((gb)p)'
p1761
I01
sS'bl('
p1762
I00
sS'kiylylb(hyks)e'
p1763
I01
sS'uxjiuxw'
p1764
I01
sS'o()w())mersm'
p1765
I00
sS'(ecno'
p1766
I00
sS'v(s(z(h(psai)v))u)rhpndwz'
p1767
I01
sS'(gckido)fxoeca'
p1768
I01
sS'eig()xo(tu)swt'
p1769
I01
sS'k(resbl'
p1770
I00
sS'onk'
p1771
I01
sS'ubxd(n(q)jlsexjvrw)c'
p1772
I01
sS'w(uhfljogyl)'
p1773
I01
sS'vqjgv(kr)icfsab'
p1774
I01
sS'sfx(fky'
p1775
I00
sS'whfoslym))tllr'
p1776
I00
sS'j(ry)'
p1777
I01
sS'qezmqtnh'
p1778
I01
sS'bkeo(qbi'
p1779
I00
sS'hqgqxr'
p1780
I01
sS'ged()mc'
p1781
I01
sS'h(wp()ac)qirsc'
p1782
I01
sS'(k)uor'
p1783
I01
sS'zi(k)d'
p1784
I01
sS'lsqjwhwi'
p1785
I01
sS'(mae(pwj)y)t'
p1786
I01
sS'wn(ma)hq()'
p1787
I01
sS'xxfkp(fm('
p1788
I00
sS'sizf'
p1789
I01
sS'(bkrbxkd)'
p1790
I01
sS'eb(ygtyratdqgx'
p1791
I00
sS'hzjzq(opya)'
p1792
I01
sS'idvkhnkftt'
p1793
I01
sS'(vyr(()mn)uvjyatsro)'
p1794
I01
sS'wl(y())lqepppzsssdzz)v))z'
p1795
I00
sS'oc(z(bca)'
p1796
I00
sS'irz'
p1797
I01
sS'a(s(z(j)th)in)p'
p1798
I01
sS'gpeowsd(f(yqvjpaxp)truzj)'
p1799
I01
sS'owiu(u'
p1800
I00
sS'(w)whubm'
p1801
I01
sS't'
p1802
I01
sS'r(abj(()bqtt)oomnfqq'
p1803
I00
sS'j(n()s)'
p1804
I01
sS'wftcs(hnpx)'
p1805
I01
sS'zp))'
p1806
I00
sS'bmkuq'
p1807
I01
sS'y)(e(djjiceezxo)ykd)gupbp'
p1808
I00
sS'(squqibf))e'
p1809
I00
sS's((qp)'
p1810
I00
sS'ltq(zu())b'
p1811
I01
sS'(n()hq)v'
p1812
I01
sS'aaavp'
p1813
I01
sS'zs)'
p1814
I00
sS'u('
p1815
I00
sS'hy(dkcdc)i'
p1816
I01
sS'gwnbwt)igc'
p1817
I00
sS'x('
p1818
I00
sS'tna)b'
p1819
I00
sS'hny(saj'
p1820
I00
sS'w(v)zkqr'
p1821
I01
sS'(dvkdhkerh)kkslxmeksmm)pphetoc'
p1822
I00
sS'ra(xxmb)vc(tyfzzt))))hxzv'
p1823
I00
sS'mminpxhap)shpt'
p1824
I00
sS'azkhasn(v)'
p1825
I01
sS'g(((gmv)vagj)lt)wkeg'
p1826
I01
sS'(zkk)en'
p1827
I01
sS'ez(jtlimtiidd'
p1828
I00
sS'javgo()'
p1829
I01
sS'oyw(b)u(px)t'
p1830
I01
sS'jltne'
p1831
I01
sS'b(dxizk'
p1832
I00
sS'ttg(labs)r))pze'
p1833
I00
sS'kgyrgvhlgfftmgtpshcr'
p1834
I01
sS'uuf(uq(jicmkpv)epikwt)zhxunfih'
p1835
I01
sS'b(((llgqcjwlvzm)zxsdlmr)lb)pgp'
p1836
I01
sS'nno()viwdy()z)fhzvczxsjkfnsss)'
p1837
I00
sS'zbdxpknyi'
p1838
I01
sS'istwp()plvkrgnh'
p1839
I01
sS'x(mqcc'
p1840
I00
sS'azis(z(c))adj)e'
p1841
I00
sS'(n)p()e'
p1842
I01
sS'eguh'
p1843
I01
sS'pvhtjeiab'
p1844
I01
sS'(g(e)y(o(eg))))sssdglxbuj'
p1845
I00
sS'ni()j())jeqwby'
p1846
I00
sS'rzu'
p1847
I01
sS'r'
p1848
I01
sS'((pki)sjyxy'
p1849
I00
sS'eghb((ozcch)mq'
p1850
I00
sS'czst()q'
p1851
I01
sS'xw(i(hbtqp)'
p1852
I00
sS'edspvbgfv'
p1853
I01
sS'fz(nw)ilvze'
p1854
I01
sS'iwl)bj'
p1855
I00
sS'ef(zi)ac))'
p1856
I00
sS'rwbtynj'
p1857
I01
sS'u(i(zfuuyojq))thk)yt'
p1858
I00
sS's(()hyrcj)s'
p1859
I01
sS'brhbx(()onaqg)q'
p1860
I01
sS'nv(mg'
p1861
I00
sS's(x(qdjth)i)liygwqxd'
p1862
I01
sS'n(g)p'
p1863
I01
sS'l((dumyzw(((inp(x))aeup(hak)nj'
p1864
I00
sS'qtcehz(()v)'
p1865
I01
sS'j(o)swiuxilc'
p1866
I01
sS'ienifqflg'
p1867
I01
sS'pwibwj'
p1868
I01
sS'agijq)'
p1869
I00
sS'k(dmetdd)nvlifukfigy'
p1870
I01
sS'chhliil(icv'
p1871
I00
sS'sa(zuhlrv)cvpp'
p1872
I01
sS'((k((ltrcxwjjcho))hj'
p1873
I00
sS'(x)u(ax()x(e)zg'
p1874
I00
sS'wd(bs)kxxxxwbds'
p1875
I01
sS'a()j(xu(n(mieuqxjs)g)()fc'
p1876
I00
sS'suc(w)(wtqhomxqioirtrc)zl'
p1877
I01
sS'(ly(()g)l)ddis)'
p1878
I00
sS'vvkcf(wxg(lb)e)tz)cy'
p1879
I00
sS'zof'
p1880
I01
sS'm(ggeo((i))t'
p1881
I00
sS'kqzaoh(jejx)'
p1882
I01
sS'((gx)dxd'
p1883
I00
sS'aayuix(v)'
p1884
I01
sS'jjh(k)y(bqzj))'
p1885
I00
sS'zom'
p1886
I01
sS'(z((c(wdddvhlzgzsqq)sxjpz)d)vp'
p1887
I00
sS'zop'
p1888
I01
sS'l(bdyowsdctxpi'
p1889
I00
sS'pokzu)zpm'
p1890
I00
sS'((hy())yeuz))'
p1891
I00
sS'k(r(ivktcbw)iarvui)b'
p1892
I01
sS'k(bh)(sxwp((uaxtj)))ihu))'
p1893
I00
sS'zoy'
p1894
I01
sS')e(('
p1895
I00
sS'e((wozzi)'
p1896
I00
sS'bd(o(l(me(p)a)vjtn)qkolmfqj)jv'
p1897
I01
sS'ofaqjs'
p1898
I01
sS'wcn'
p1899
I01
sS'gmc(vmax)wg(lsz'
p1900
I00
sS'aarygims'
p1901
I01
sS'(d)lk(v)la'
p1902
I01
sS'(ab)ev)'
p1903
I00
sS'bqvxc'
p1904
I01
sS'vtc(ytt'
p1905
I00
sS'gbyqa()'
p1906
I01
sS'jb(l)(i())zq'
p1907
I01
sS'yf)d'
p1908
I00
sS'hukq(eo)'
p1909
I01
sS'zdgw(abon'
p1910
I00
sS'mtih(q)prb'
p1911
I01
sS'tuzgx'
p1912
I01
sS'engjmg(owug'
p1913
I00
sS'cvyfbccz(rxo)x'
p1914
I01
sS's(uc(gasr)nqr)'
p1915
I01
sS'lfts((cy)xrjp)l'
p1916
I01
sS'(xbvra)kxfoztdtnzdrsvsmhn'
p1917
I01
sS's()v)(qmle)po'
p1918
I00
sS'bi((zpj'
p1919
I00
sS'(f)ybfjtrnvj'
p1920
I01
sS'rnl('
p1921
I00
sS'iz(ttzxeev'
p1922
I00
sS'u()u(duo((jjk)srzpixghg)f'
p1923
I00
sS'(x)ekp'
p1924
I01
sS'eyjt(q(evlmjza)nnmfioyeqfedh)h'
p1925
I01
sS'jm)e'
p1926
I00
sS'xx()pqu'
p1927
I01
sS'()pyr'
p1928
I01
sS'phij'
p1929
I01
sS'vdyifu()k'
p1930
I01
sS'o(b)((dff))hbfekfoql'
p1931
I01
sS'()snyl'
p1932
I01
sS'j(h(lt(kc)ttrt'
p1933
I00
sS'kn()))z'
p1934
I00
sS'mzsxo'
p1935
I01
sS'lrzkopllen)cdf'
p1936
I00
sS'rn((gosm)p)jtix'
p1937
I01
sS'k(l'
p1938
I00
sS'md(qy)clp'
p1939
I01
sS'lqfru'
p1940
I01
sS'lb(((pourdgt)l'
p1941
I00
sS't(no(c(u(fxqnmyt))z)cnkx)'
p1942
I01
sS'yd('
p1943
I00
sS'r(w)okyztqlhv'
p1944
I01
sS'uvwqpx(sgequpufmaibj)yia)ttqeo'
p1945
I00
sS'bwhno(q)gda'
p1946
I01
sS'(wjxxx()(mhcfesjsjcc)fgbbb)adb'
p1947
I01
sS'lz(vkke(i)iq)c)'
p1948
I00
sS'leygx'
p1949
I01
sS'(emsphekrduo)jf'
p1950
I01
sS'ow(s))ykrvdzba'
p1951
I00
sS'kdi)xpo))'
p1952
I00
sS'bvzj(a)jmw'
p1953
I01
sS'rl()x'
p1954
I01
sS'(h)cff'
p1955
I01
sS'g(c)rhg'
p1956
I01
sS'y)xo'
p1957
I00
sS'h(((daawh)rjcba)ccea'
p1958
I00
sS'nbyrwy'
p1959
I01
sS'x)xxlywl(yyp)'
p1960
I00
sS'sp()tagqo'
p1961
I01
sS'jr()xcairrec'
p1962
I01
sS'aatiowucea'
p1963
I01
sS'wi(v)'
p1964
I01
sS'mo(u)bhog'
p1965
I01
sS'(kmcwnwg)hst'
p1966
I01
sS'((fvtth)'
p1967
I00
sS'((()(((l(n))oe)sp)efyoewz'
p1968
I00
sS'u(a)'
p1969
I01
sS'j(rqeemi)tf'
p1970
I01
sS'cr()ourlak'
p1971
I01
sS'soreaupdvkq'
p1972
I01
sS'xs(b)y'
p1973
I01
sS'fo(()(cgfmvpc)izy)ygiuuubzxopp'
p1974
I01
sS'yjiugyj'
p1975
I01
sS'(ym'
p1976
I00
sS'kkx(se(z(ubkfaj))rzfpj))bjmdpf'
p1977
I00
sS'minddp(zkla'
p1978
I00
sS'q(bwckf'
p1979
I00
sS'uitkueuu'
p1980
I01
sS'mswciidat'
p1981
I01
sS'((xk))zmxeu'
p1982
I01
sS'w)jilekescjcada)djauikvyuuxgpb'
p1983
I00
sS'((jmzr)()lzvprqexv)ijkxyw'
p1984
I01
sS'azh'
p1985
I01
sS'a(t((noms(tqjjomm)dfh)w)k'
p1986
I00
sS'kxn'
p1987
I01
sS'zcqtvqxfzpopf'
p1988
I01
sS'(tb(qkontjofs'
p1989
I00
sS'v((yykx(j)'
p1990
I00
sS'kxb'
p1991
I01
sS'qvvl(ulychu)wt'
p1992
I01
sS'g(kb'
p1993
I00
sS'ri(bj(ahayp)nyjrbz)qphsdq'
p1994
I01
sS's(qs)mhfmz'
p1995
I01
sS')qhr'
p1996
I00
sS'jkxup'
p1997
I01
sS'(daex(dnz(y)gjtg)gkfstyrwq)elo'
p1998
I01
sS'()bnwl()nxu'
p1999
I01
sS'hvdh(z(ojsu)u'
p2000
I00
sS'tc(u(n(thrchzw)jr)))'
p2001
I00
sS'ew(j((owyow)cz)'
p2002
I00
sS'(ojzyfbu))faoi)'
p2003
I00
sS'd(jix)n'
p2004
I01
sS'(u(ub)b'
p2005
I00
sS'ps()(fubm)'
p2006
I01
sS'rq(zwg)dk'
p2007
I01
sS'sdoh'
p2008
I01
sS'wa)'
p2009
I00
sS'(uewp'
p2010
I00
sS'oisslhn'
p2011
I01
sS'(((o)(pm)pzt'
p2012
I00
sS'sv)wzl)h'
p2013
I00
sS'w()fhsm'
p2014
I01
sS'vocmicshdbdb'
p2015
I01
sS'((ij))'
p2016
I01
sS'o(ys)ntf'
p2017
I01
sS'kkc((lli)(gi)'
p2018
I00
sS'wtabsqg'
p2019
I01
sS'(mm(h)a)'
p2020
I01
sS'bkcxxykcb'
p2021
I01
sS'(dvwxudy'
p2022
I00
sS'isblpv'
p2023
I01
sS'sdor'
p2024
I01
sS'evxb'
p2025
I01
sS'(ywbh()r()dhiamholwjeb)ao'
p2026
I01
sS'zuz()fmb((uzelrec)urfirtv'
p2027
I00
sS'x(ti)zz(q'
p2028
I00
sS'isb(s(f())e)ldw'
p2029
I01
sS'(pg))zgovyj(h'
p2030
I00
sS'uznlapmson'
p2031
I01
sS'dytfm(edsw'
p2032
I00
sS'ev(pd)cz)ch'
p2033
I00
sS'nqamzr(kn'
p2034
I00
sS'qwyjdnu'
p2035
I01
sS'g((u((bxipzodpkxc)))euv)t'
p2036
I01
sS'xumhoqjfjmhhzb'
p2037
I01
sS'pppbrzb(nuwd)k)mwlfffqdaselagm'
p2038
I00
sS'(nje'
p2039
I00
sS'()m(n)myflxw'
p2040
I01
sS'ff(tly()h)gg'
p2041
I01
sS'xlytpaewunuu'
p2042
I01
sS'(s((lht)lz)e'
p2043
I00
sS'(n()tffm)xkjf'
p2044
I01
sS'h(zw)sg)nt(gjddl(jxr'
p2045
I00
sS'y(t(imfkkeaxmscw))tmgzzr)'
p2046
I00
sS')sxdbm(j)t'
p2047
I00
sS'vef(r((eoozyohphnuj)piooh'
p2048
I00
sS'opmyo)xy'
p2049
I00
sS'su(f())'
p2050
I01
sS'oa((r))x'
p2051
I01
sS'ncmpz)e(zrwppck'
p2052
I00
sS'o)('
p2053
I00
sS'j(scx)ik'
p2054
I01
sS'e(yuu)x'
p2055
I01
sS'w(p)((qj)ym)pmfdfwwq'
p2056
I01
sS'cm((roc()sgfcoltewoeuv)hd)vytl'
p2057
I01
sS'pz(fall)(spewk'
p2058
I00
sS'kodyaewlxvxx)'
p2059
I00
sS'z(f)a((bn)ajnrli)vyecrvok'
p2060
I01
sS'ad(ipzudop)tmmb'
p2061
I01
sS'g)gnnn'
p2062
I00
sS'mcltanu'
p2063
I01
sS'tmyd()kwglvayzd'
p2064
I01
sS'qivr'
p2065
I01
sS'yta'
p2066
I01
sS'pemoxylov)o'
p2067
I00
sS'(pjtz)q'
p2068
I01
sS'ye()lxh)y'
p2069
I00
sS'p(wqyamo)'
p2070
I01
sS'i(bfie'
p2071
I00
sS's(qzuqjqn'
p2072
I00
sS'(sqwobtf)aetw'
p2073
I01
sS'ae(bxyrlzmio'
p2074
I00
sS'kpfaee(xw)ov(dfxuqx)n)tkmzaviv'
p2075
I00
sS'f()(kt)h)'
p2076
I00
sS'ggj(tca'
p2077
I00
sS'hlwm()bnz'
p2078
I01
sS'ajqd(d(fw)ifn)'
p2079
I01
sS'(k(swrrcqrrgzyzwsgff)gy)gulkpk'
p2080
I01
sS'vzvy(gr)ii'
p2081
I01
sS'kk(luxkp'
p2082
I00
sS'ujsr(s(()uobkmvnzeia)k)ev'
p2083
I01
sS'xeyvs(p(qzbtrr)kmhhgniv)llo)hz'
p2084
I00
sS'()apd(axza)zrqtfxvyl'
p2085
I01
sS'pj()jotz'
p2086
I01
sS'c(rjf(cwbcds)t)'
p2087
I01
sS'gpzposmq'
p2088
I01
sS'heek()(s)q(zr)gbpjn)jetmy'
p2089
I00
sS'l(z(t)j'
p2090
I00
sS'(r(wqqwholp))ww)zg)emnnhydvijb'
p2091
I00
sS'wuy(aqyz)dtcm'
p2092
I01
sS'pfeo(d(xc))qal'
p2093
I01
sS'agmtxs)e'
p2094
I00
sS'gwl'
p2095
I01
sS'd(hiefe'
p2096
I00
sS'i((z((g(g))tz)hrn)ihidiu)'
p2097
I01
sS'z(nrmk)e'
p2098
I01
sS'ky(s(lqjoh'
p2099
I00
sS'kizltpk()(l)ads'
p2100
I01
sS'htkknecui'
p2101
I01
sS'v(uq)(uleg)f'
p2102
I01
sS'zmw(hxj)yb'
p2103
I01
sS'(pc()u(qc)hbo)b'
p2104
I01
sS'ftbww)'
p2105
I00
sS'o(()'
p2106
I00
sS'nn(qkh)qws)ch'
p2107
I00
sS'vl(ka())hxmm'
p2108
I01
sS'rjq(on())uwngcykgs)fd)zha'
p2109
I00
sS'(a(j)en)ku))u'
p2110
I00
sS'rmvzvyur'
p2111
I01
sS'ejsjrl(bej)zo'
p2112
I01
sS'y(gays)pnwvfnmasxpni'
p2113
I01
sS'()vk(qclqnde'
p2114
I00
sS'(b(kd))'
p2115
I01
sS'aajct(w)'
p2116
I01
sS's()(eb((twlcqo)o)s)d'
p2117
I01
sS'y(z(dlclmwigz))i)))j'
p2118
I00
sS'dbpaog'
p2119
I01
sS'uhphgemqsjya'
p2120
I01
sS'cxqyxhsaf(uvqhwdczngkdrzdg)swb'
p2121
I01
sS'f(netg)cyvrdv'
p2122
I01
sS'oop(alaabwaix)'
p2123
I01
sS'jdblto(p(q)he'
p2124
I00
sS'lz(f)jbe(vhuulylskiq))bdr'
p2125
I00
sS'(h)(((w))mpss'
p2126
I00
sS')q)d(ie'
p2127
I00
sS'()ixsysssdzrvjo'
p2128
I01
sS'zt((cdavxfppwcctfnwuue)))ktpmo'
p2129
I00
sS'ut(()xm(q)'
p2130
I00
sS'dsukk((l)o'
p2131
I00
sS'vdx(uz)ykksjl'
p2132
I01
sS'psa()fuubm)'
p2133
I00
sS'jhlrroa)'
p2134
I00
sS'(ot(((atdp)r)xii)fz)czhvi'
p2135
I01
sS'u(qcc(qvkpyz)qfqzg)kh)rdzcorgs'
p2136
I00
sS'oxads'
p2137
I01
sS'oeepu(efrf)'
p2138
I01
sS'cwgevo()u'
p2139
I01
sS'b(ell)ofu'
p2140
I01
sS'dpju(oxfpigj)n'
p2141
I01
sS'boxr(kdxw)d'
p2142
I01
sS'(d(f(ngc(seabr))awccfep)d)wpws'
p2143
I01
sS'khgaqzm'
p2144
I01
sS'unb)'
p2145
I00
sS'nlua((xsi)'
p2146
I00
sS'vqmza((wyywgo)q'
p2147
I00
sS'yzs'
p2148
I01
sS'r(lzyrzfz)nv'
p2149
I01
sS'poaezjrzavw)'
p2150
I00
sS'(x(bxfkh)vh)c'
p2151
I01
sS'csllwhehzgcbawtheaetfnstk)ahfs'
p2152
I00
sS't(jiio)'
p2153
I01
sS'(pxh'
p2154
I00
sS')jarst'
p2155
I00
sS'r(wce(t))xjzoueqr)hw'
p2156
I00
sS'q(r)(())gfv)'
p2157
I00
sS'm(gp)(fv)))www'
p2158
I00
sS'd((k)px(bhyg)'
p2159
I00
sS'gi()'
p2160
I01
sS'hl(()fyh)'
p2161
I01
sS'ui(xr)zat'
p2162
I01
sS'hk((b()t))tlqm'
p2163
I01
sS'jxmx())'
p2164
I00
sS'uxr()dc'
p2165
I01
sS')cdvnkeoaxqhgg'
p2166
I00
sS'(ksknu'
p2167
I00
sS'y(gayskpowvfnmasxpni'
p2168
I00
sS'cq)'
p2169
I00
sS'a((irroha)wp)vozvkka'
p2170
I01
sS'()y((xrtp))'
p2171
I01
sS'm()'
p2172
I01
sS'h(l()gk)arnlub'
p2173
I01
sS'fci(kkaa'
p2174
I00
sS'(puf)gwkpnm'
p2175
I01
sS'uxlwxrdkep'
p2176
I01
sS'(kt)kbfcbkq'
p2177
I01
sS'(()oixzcca((vuu)xq)))ergg'
p2178
I00
sS'n()(y(h()on)eoanc)wibvp)o'
p2179
I00
sS'hzjzmqoppyba)'
p2180
I00
sS'eolkkn)'
p2181
I00
sS'(zt)'
p2182
I01
sS')bfwejaiv'
p2183
I00
sS'pg)v'
p2184
I00
sS'cmtybvbsgn(wmwhvidnbvtwoxrbkpt'
p2185
I00
sS'eqcohjoo)yzsjy'
p2186
I00
sS'xkycy()y(wlcb)'
p2187
I01
sS'uxs'
p2188
I01
sS'izzsqse(x)wrhb'
p2189
I01
sS'bbxt'
p2190
I01
sS'kckzotlj'
p2191
I01
sS'kqidombnss'
p2192
I01
sS'xhbcm()xhervzrk'
p2193
I01
sS'e(t(()vg))sm'
p2194
I01
sS'di)g'
p2195
I00
sS'dckbqhc()((st)kt(bbuv)))ljdrsp'
p2196
I00
sS'pahf'
p2197
I01
sS'()ntyybl)j'
p2198
I00
sS'pnoi(jjlpyucyzx)ezxt'
p2199
I01
sS'gklk((()dy)sohe'
p2200
I00
sS'(m)ebz(raynuevd'
p2201
I00
sS'((()r)p)bnr'
p2202
I01
sS'((ghfdeiino'
p2203
I00
sS'jzz)gavsww'
p2204
I00
sS'((att)vqcclu'
p2205
I00
sS'x(vrkljmanzen)e'
p2206
I01
sS'v(sjb()uj'
p2207
I00
sS'u(judh((aphe)xe)jyuowoi)razkwk'
p2208
I01
sS'((pki)tsjy)y'
p2209
I01
sS'dkp()syhiavwrkassbbfildkfqquyv'
p2210
I01
sS'(rkkrxaqrjytv'
p2211
I00
sS'vifyyenspn'
p2212
I01
sS'hn(()l'
p2213
I00
sS'fr(uuub'
p2214
I00
sS'bjkcpz'
p2215
I01
sS'vne)'
p2216
I00
sS'fmacmnu'
p2217
I01
sS'fl((b)uz)'
p2218
I01
sS'(lvhkehqec)o'
p2219
I01
sS'gysu'
p2220
I01
sS'a(xezdn)ngndv'
p2221
I01
sS'ib(z)n)deu'
p2222
I00
sS'rwkk('
p2223
I00
sS'(fc'
p2224
I00
sS'(e)aeg)'
p2225
I00
sS'(ebnp)m)kixz)'
p2226
I00
sS'()ppucpxdj'
p2227
I01
sS'grvvxtdg(n)oj'
p2228
I01
sS'tilfjljvqp'
p2229
I01
sS'kr()()uekcjpvi'
p2230
I01
sS'xvsjuvvijork'
p2231
I01
sS'u(eea)myxftbe)z'
p2232
I00
sS'(id(vuz))qbt'
p2233
I01
sS'yhg(mtgn)zcuzlxwwar)'
p2234
I00
sS'c(jziur)mlr'
p2235
I01
sS'()j(ujt((ythrs)qznejhrvdvcod))'
p2236
I01
sS'wizlt(k()(l)ads'
p2237
I00
sS's(q)'
p2238
I01
sS'txv(j)(()kpiptgywop)'
p2239
I01
sS'wyosxl'
p2240
I01
sS'puvilfbbegbg)dd'
p2241
I00
sS'zt(n)(mxxvvpwe'
p2242
I00
sS'(v(d)fvbvnj'
p2243
I00
sS'(vvkylq))fg)g'
p2244
I00
sS'v(vnkk'
p2245
I00
sS'jqb()tdy)ofxxj'
p2246
I00
sS'pi(psfhqc)ctxq'
p2247
I01
sS'(ceraisbtj)xk'
p2248
I01
sS'(l(y(()g)l)dis)'
p2249
I01
sS'prc('
p2250
I00
sS'ji()aij)ir'
p2251
I00
sS'm(u(l)(t))'
p2252
I01
sS'mo(qaor(qx)tfi'
p2253
I00
sS'ul(())'
p2254
I01
sS'ut(xur)f())'
p2255
I00
sS'qdurm)nf)l'
p2256
I00
sS'hx('
p2257
I00
sS'rqjys)ntff'
p2258
I00
sS'xcyjp)'
p2259
I00
sS'yyxxoooggh()ujl(bhmbqqqoqeugyu'
p2260
I00
sS'cvg()cvg'
p2261
I01
sS'fzdhcll'
p2262
I01
sS'()(fsjsz)'
p2263
I01
sS'gutt(z'
p2264
I00
sS'po((gfld)m)ub'
p2265
I01
sS'ytbev(fh((e))'
p2266
I00
sS'avhxzp'
p2267
I01
sS'w(le)pmfe('
p2268
I00
sS'(nnzrf'
p2269
I00
sS'o)nwo'
p2270
I00
sS'fys(e'
p2271
I00
sS'ehfd(lg))hh'
p2272
I00
sS'(((uuxwimk()uqa'
p2273
I00
sS'(z'
p2274
I00
sS'(ujw(axgwzdp)okakuydjj)bn'
p2275
I01
sS'bjyuvnkja'
p2276
I01
sS'y(mjo)rt'
p2277
I01
sS'(()nn'
p2278
I00
sS'(s'
p2279
I00
sS'(p'
p2280
I00
sS'lgh)ul'
p2281
I00
sS'(w'
p2282
I00
sS'osmgm)'
p2283
I00
sS'(j'
p2284
I00
sS'o(z)(x)(()z))b'
p2285
I00
sS'bznx'
p2286
I01
sS'(i'
p2287
I00
sS'woq(uhhqlaz'
p2288
I00
sS'(i)(b)lh'
p2289
I01
sS')ows'
p2290
I00
sS'oerpqkos'
p2291
I01
sS'(o(sgc(()jhfbs)kklgvc)ufxtn)ol'
p2292
I01
sS'dyzgutib'
p2293
I01
sS'(h('
p2294
I00
sS'(f'
p2295
I00
sS'dzxxyud(p)o'
p2296
I01
sS'eu(wqobgi)m'
p2297
I01
sS'rxpymfgtrski'
p2298
I01
sS'tg(u)jbmxu'
p2299
I01
sS'(ied(teum)xjd)tyundzllb)lfzmcn'
p2300
I00
sS'v(nvrxtcz)eifa)'
p2301
I00
sS'n((()g)oatrmw)j'
p2302
I01
sS'gelyj)'
p2303
I00
sS'oscz(bca)z'
p2304
I01
sS'rwj(((i(bx(ltor(bmdp)))lplu)))'
p2305
I01
sS'(jzrnhlv)o'
p2306
I01
sS'(awf)ync'
p2307
I01
sS'gzmmjy((qzrkiu)'
p2308
I00
sS'pynssubbuvpy'
p2309
I01
sS'u()u(duor(jj)srrzpixghgbf'
p2310
I00
sS'f(jrjydm)td'
p2311
I01
sS'cb()mfq'
p2312
I01
sS'(ivvone)nyfe'
p2313
I01
sS'k(kkxmp'
p2314
I00
sS'pwftzycms'
p2315
I01
sS'(v())x))r'
p2316
I00
sS'vxyijcf'
p2317
I01
sS'bnbigp)b'
p2318
I00
sS'((ni)qgx'
p2319
I00
sS'()mcljjp'
p2320
I01
sS'lnduyoce'
p2321
I01
sS'u((()fz)f'
p2322
I00
sS'syli'
p2323
I01
sS'(t(n(s(cabi)eybmr)pqylp))'
p2324
I01
sS't(sh'
p2325
I00
sS'onykx)yc'
p2326
I00
sS'(ht'
p2327
I00
sS'((bpqxymlx)s)hs'
p2328
I01
sS's(ekk)(jkj)rzh'
p2329
I01
sS'pss(tv((fy)ussa)okxtbok)e'
p2330
I01
sS'(hx'
p2331
I00
sS'oxh(o()))neianu'
p2332
I00
sS'aht(uomw()s)zsiydsay'
p2333
I01
sS'(hb'
p2334
I00
sS'ibpnzhliac'
p2335
I01
sS'zhry(l(s(b))hvep)us)'
p2336
I00
sS'nozpf(s)l'
p2337
I01
sS'gd)'
p2338
I00
sS'bhz(n(rm(falqsjwrylny)c)a'
p2339
I00
sS'(hh'
p2340
I00
sS'mma(opfbk)wl'
p2341
I01
sS'()grc(mb)jl'
p2342
I01
sS'y(nkmaok()d))b'
p2343
I00
sS'ewer(otljvcafxn)dmni'
p2344
I01
sS'(x)qeerrxx'
p2345
I01
sS'hlqbzdfnk'
p2346
I01
sS'zqntj'
p2347
I01
sS'eewerr(otljvcaffxnn))dmni'
p2348
I00
sS'likq(()cuctktmy'
p2349
I00
sS'pvp)ngllzf'
p2350
I00
sS'()py(jr(c)anavriexur'
p2351
I00
sS'cvptlh'
p2352
I01
sS'ktbt(((emyymgg(uvclsc)se)sepoh'
p2353
I00
sS'xx(hpqq'
p2354
I00
sS'xq(zmnzg)gczdna'
p2355
I01
sS'gionom((tmsf)vmakkcvwwhxw'
p2356
I00
sS'q(u)ghjvjitrdmbhy)vp'
p2357
I00
sS'ohrzgc)yxsk'
p2358
I00
sS'mpc)'
p2359
I00
sS'vew(j(owyow)sz)'
p2360
I01
sS'aw()(o()xb'
p2361
I00
sS'wz()hvemb'
p2362
I01
sS'(q)af'
p2363
I01
sS'di(avvbko'
p2364
I00
sS'()bdcpkhsz'
p2365
I01
sS'(ykgg(jx)yb))'
p2366
I00
sS')njefaggm'
p2367
I00
sS'naf((jxv)nu)ang'
p2368
I01
sS'ris()bi(((ee)mgnd))ksqqevahtar'
p2369
I01
sS'(st(dy(s()peyvhg))hxuv)cez(die'
p2370
I00
sS'iwblny(wpvopz)vb(vhj'
p2371
I00
sS'p()rfiv'
p2372
I01
sS'fvemgdto'
p2373
I01
sS'xepv(du(z)lytnngvfmq)uu)ukryve'
p2374
I00
sS'yyy(()'
p2375
I00
sS'tvf'
p2376
I01
sS'l)llomod'
p2377
I00
sS'e(qoex)'
p2378
I01
sS'tvc'
p2379
I01
sS'l(((xf)sblcq))'
p2380
I01
sS'txxfcbriqiti'
p2381
I01
sS'nf()mhxdldjto'
p2382
I01
sS'vu(nmn(azzd)at)'
p2383
I01
sS'xswy))yyy'
p2384
I00
sS'r(esi'
p2385
I00
sS'emeonfmzzh)v'
p2386
I00
sS'(l(fm(db(wqmq)nhh)o)kxvackjmce'
p2387
I00
sS'y(mlli'
p2388
I00
sS'nwcnggfyblixw'
p2389
I01
sS'p(jji)ad'
p2390
I01
sS'gr(e(s((vj)e)sd'
p2391
I00
sS'fcfcpnn'
p2392
I01
sS'raddj(vvvvp'
p2393
I00
sS'fx(x'
p2394
I00
sS'(xfpjzt)w'
p2395
I01
sS'pz((l(z)tw)lt)k'
p2396
I01
sS'(itxfo)kpvl'
p2397
I01
sS'yblt(bb(kx)))'
p2398
I00
sS'((zqt)nmv)muz'
p2399
I01
sS')gfo'
p2400
I00
sS'(zvrcno)qbk'
p2401
I01
sS'()((jdxc)d)'
p2402
I01
sS'o(e)((lshxl)zavxbs)e'
p2403
I01
sS'tdn'
p2404
I01
sS'(n(((p(j))ouo)gr)jzm)chfy'
p2405
I01
sS'j(h((f(h())he)d'
p2406
I00
sS'n(dons'
p2407
I00
sS'(v(n)(mq(()q))awawis)oksq'
p2408
I01
sS'z(epso'
p2409
I00
sS'mwjc()ps'
p2410
I01
sS'hyput)iqhyqcy'
p2411
I00
sS'yppv(vwnzjflh)y'
p2412
I01
sS'rhxggvztau'
p2413
I01
sS'tpozjxfpd'
p2414
I01
sS'trecthmqp'
p2415
I01
sS'kvi'
p2416
I01
sS'xn(v'
p2417
I00
sS'((y(ihdz(iazeed)p)fd))zjaobhn)'
p2418
I00
sS'bewez'
p2419
I01
sS'jsrjo(xs)v'
p2420
I01
sS'()pe(l(ohhb)wetssdpaveivy'
p2421
I00
sS'w()(b)d'
p2422
I01
sS'hlntoo)hqq)v'
p2423
I00
sS'thqoi)crvkxg'
p2424
I00
sS'blufkj(uk'
p2425
I00
sS'oy'
p2426
I01
sS'cz))brd'
p2427
I00
sS'((vy()q)gg'
p2428
I00
sS'(mbe(kyd)qryptwh)lmp'
p2429
I01
sS'(((gscpfnirt))v'
p2430
I00
sS'(cgl(()hv))'
p2431
I01
sS'lb((o)jbjipriyhbmo)unpg)l'
p2432
I00
sS'yynm(z(e'
p2433
I00
sS'kodyaewl(dxx)'
p2434
I01
sS'x(wkhrwbf'
p2435
I00
sS'tz)vgy'
p2436
I00
sS'bjm'
p2437
I01
sS'ilcklzyp(sv(sfefxwuakdr)tztjct'
p2438
I00
sS'(z)w(lgs)'
p2439
I01
sS'v(jfivtwd'
p2440
I00
sS'qrn'
p2441
I01
sS'q(ja)z(hf())mxe'
p2442
I01
sS'qrq'
p2443
I01
sS'qrr'
p2444
I01
sS'zno((()y)(xddaawpkt)'
p2445
I00
sS'bbbab(rddbpobx'
p2446
I00
sS'r()s(lcap'
p2447
I00
sS'g(yjorq'
p2448
I00
sS'(dr(grjq)f)(oo'
p2449
I00
sS'oa(j(tuqsyslz)tvskpt'
p2450
I00
sS'filaub(b)'
p2451
I01
sS'hjllfefqyqap)'
p2452
I00
sS'oz(fal)hpewk'
p2453
I01
sS'ij))'
p2454
I00
sS'cvg)cev'
p2455
I00
sS'rfj(g)rvlwo'
p2456
I01
sS'rq(zgdc'
p2457
I00
sS'zbkwbdqt(edkkk)lcsny'
p2458
I01
sS'uwed()ss(twcnnfigokm'
p2459
I00
sS'tsfi'
p2460
I01
sS'rk)(wbxu(o))x'
p2461
I00
sS'vqe(n())'
p2462
I01
sS'sa(flm'
p2463
I00
sS'zwsjst(df'
p2464
I00
sS'vu)arfredjuonk'
p2465
I00
sS's(xa))'
p2466
I00
sS'(()posg)ot'
p2467
I01
sS'tuxg(y)uduz'
p2468
I01
sS'wixf)'
p2469
I00
sS'ma(()uwb'
p2470
I00
sS'pxctzwsuh'
p2471
I01
sS'bf(nkgdivyb)pqvhlhkw'
p2472
I01
sS'xjowu)v'
p2473
I00
sS'sopn(j(yy)f))vj'
p2474
I00
sS'()(syfljccv'
p2475
I00
sS'kjh)afeil'
p2476
I00
sS'qzmabd'
p2477
I01
sS'(rbbmwl'
p2478
I00
sS'(b'
p2479
I00
sS'z(n)eglf)e'
p2480
I00
sS'akonxj()dv'
p2481
I01
sS'l(xc)iridzxjtbr'
p2482
I01
sS'od(ie)fn'
p2483
I01
sS'unvmks(dj'
p2484
I00
sS'yyvcawujc)'
p2485
I00
sS'njwczvnboji'
p2486
I01
sS'tva'
p2487
I01
sS'dheit(dlfijf)g'
p2488
I01
sS'zkaxsnq)d'
p2489
I00
sS'lnaqbj(n)ear'
p2490
I01
sS'teh((k(z)uq))w'
p2491
I01
sS'exirgd(())'
p2492
I01
sS'ifg((oc)rotkh)a'
p2493
I01
sS'lcqqaa()(hggjss'
p2494
I00
sS'ls(((zmwq)jihdzihkjdn)))dbwpcs'
p2495
I00
sS'z(mvevgzp'
p2496
I00
sS'eepeed)qtexwrpa'
p2497
I00
sS'dz((()a(jw))uu)ifel)'
p2498
I00
sS'lcgw((((h)sjrn)qq)cqbuesp'
p2499
I00
sS'h(yizvp)az'
p2500
I01
sS')pisoto()'
p2501
I00
sS'lgb(klz((oxfn)jjviom)upv)rkbsh'
p2502
I01
sS'((((jh)lywz)nhzwcfmufszfj)flto'
p2503
I00
sS'eltpu)t'
p2504
I00
sS'ck)mmwbcfdqca'
p2505
I00
sS'kkkhah(()'
p2506
I00
sS'(y)))l'
p2507
I00
sS'j(aiguct(dkutrqv()gzhgy)v'
p2508
I00
sS'guakqhwbhcb'
p2509
I01
sS'r((l)uv'
p2510
I00
sS'qwbnuanrdwrxagdxwmg)'
p2511
I00
sS'bu(hae)((rzxr)ptk))h'
p2512
I00
sS'h(rwfvnq'
p2513
I00
sS'pppbrzb(nuwd)n)mwlfffqdaselagm'
p2514
I00
sS'oo(cgs))ed'
p2515
I00
sS'nmp(p(lyv)esjg)'
p2516
I01
sS'wesb'
p2517
I01
sS'b))xe'
p2518
I00
sS')gh'
p2519
I00
sS'ab'
p2520
I01
sS'ae'
p2521
I01
sS'ad'
p2522
I01
sS'(nyk(fe(yrlox)'
p2523
I00
sS'af'
p2524
I01
sS'bo(zjvu)geh'
p2525
I01
sS'ah'
p2526
I01
sS'aj'
p2527
I01
sS'am'
p2528
I01
sS'al'
p2529
I01
sS'(fa)yqtp'
p2530
I01
sS'q((faixxie)'
p2531
I00
sS'((b())rlqkmih)iiolhj'
p2532
I01
sS'ap'
p2533
I01
sS'as'
p2534
I01
sS'myifj()yc'
p2535
I01
sS'au'
p2536
I01
sS'at'
p2537
I01
sS'aw'
p2538
I01
sS'dg(ivouu)'
p2539
I01
sS'ay'
p2540
I01
sS'qlsnar()t'
p2541
I01
sS'az'
p2542
I01
sS'(pvkjujvjiyv)'
p2543
I01
sS'jxih'
p2544
I01
sS'rqztmnxbr)txmzt'
p2545
I00
sS'(a'
p2546
I00
sS's(ej)ap'
p2547
I01
sS'()(qbwk)csi'
p2548
I01
sS'wpj()((aucffhhj))c))guuis'
p2549
I00
sS'((oth(((aatdpttr)xii)fzz)czhvi'
p2550
I00
sS'krh(p)((r))sa'
p2551
I01
sS'(nwfbu'
p2552
I00
sS't()o(vkicazznk)px)ls'
p2553
I00
sS'lff)'
p2554
I00
sS'(vk)'
p2555
I01
sS'v(euqkayoaf)itn'
p2556
I01
sS'((h)v)w(l)cdmh'
p2557
I01
sS'd(zg(c(z)ihu)'
p2558
I00
sS'r()llfttt((mq'
p2559
I00
sS'jc(z(r)((dmobijlox))'
p2560
I00
sS'op(yo)xy'
p2561
I01
sS'jspr((awzz)'
p2562
I00
sS'yy((((()oceif)d)whqu'
p2563
I00
sS'((aic)h)'
p2564
I01
sS'z(mikzii)vy('
p2565
I00
sS'knrz(cqq(lc)adwhtxgfqdlns'
p2566
I00
sS'(phx(tyywpvykpswp)c)'
p2567
I01
sS'dbmyjm'
p2568
I01
sS'a('
p2569
I00
sS'(yxa)(e'
p2570
I00
sS'((f)uur'
p2571
I00
sS'(lsvael(os)tihf'
p2572
I00
sS'bv(h((qui)wv)uyhqnqg'
p2573
I00
sS'(k()db()'
p2574
I00
sS'ha)z'
p2575
I00
sS'pw(()vy)o)vqu'
p2576
I00
sS'glqxval'
p2577
I01
sS'()((c)akbrhot)bpqtljvgcra'
p2578
I01
sS'(ucevdpupmc'
p2579
I00
sS'h(ljjjhhdk'
p2580
I00
sS'zsnsjy))cs'
p2581
I00
sS'jzacm)eapsgytvwhwumcljrqegnsyf'
p2582
I00
sS'cop((rh()l)'
p2583
I00
sS'q(x)(re((()qexbh))yy'
p2584
I00
sS'(curmi(lbsi)knnvhzstopu)p'
p2585
I01
sS'aw(qqoexu'
p2586
I00
sS'(dsvoilwaub)td'
p2587
I01
sS'ko(ax)g'
p2588
I01
sS'd((sxktmxc)gwbmhqx)kjooqu'
p2589
I01
sS'g()zampk'
p2590
I01
sS'ycxqsh'
p2591
I01
sS'niqq'
p2592
I01
sS'()vxwekdnnn)'
p2593
I00
sS'()xv)karlxgg'
p2594
I00
sS'daqjlkv()'
p2595
I01
sS'(s)bryt'
p2596
I01
sS'emk)x'
p2597
I00
sS'ic(m)gluxvfl'
p2598
I01
sS'(qqkevqkimmu'
p2599
I00
sS'g(wali))zn'
p2600
I00
sS'uld())r'
p2601
I00
sS'(o((zkikieqhryvjhky)kscbnjozr)'
p2602
I00
sS'c(txkk()jie)l'
p2603
I01
sS'ham()omc'
p2604
I01
sS'scn'
p2605
I01
sS'ncgzfvpzppn)h'
p2606
I00
sS'leafwxpry'
p2607
I01
sS')it'
p2608
I00
sS'osic()vt'
p2609
I01
sS'rq((a(po))z'
p2610
I00
sS'tf(lt'
p2611
I00
sS'sca'
p2612
I01
sS'qihwg'
p2613
I01
sS'wrwcs()yklgp'
p2614
I01
sS'lvtp(kuzhnf)oq'
p2615
I01
sS'to(y)bjypswqd'
p2616
I01
sS'ujp((xn))'
p2617
I01
sS'(uing)ji'
p2618
I01
sS'epkxfspc'
p2619
I01
sS'(d(f(ngc(seabr))uwccfep)d)wpwz'
p2620
I01
sS'(w(lcmlaa))ts'
p2621
I01
sS'gb(ab)hn(y)eft'
p2622
I01
sS'(im'
p2623
I00
sS'(in'
p2624
I00
sS'gg()poq(yj)'
p2625
I01
sS'oce()v'
p2626
I01
sS'n()nwxb'
p2627
I01
sS'gq'
p2628
I01
sS'ye()(xh)d'
p2629
I01
sS'tv'
p2630
I01
sS'tw'
p2631
I01
sS'lqfn)tqsbd'
p2632
I00
sS'bvjx'
p2633
I01
sS'x((ps)zadtyn)n'
p2634
I01
sS'rqhtmugqjdh'
p2635
I01
sS'tm'
p2636
I01
sS'tk'
p2637
I01
sS'(w(evuv'
p2638
I00
sS'qoguc(hhrwbw)d'
p2639
I01
sS'bjxfyatozf('
p2640
I00
sS'xpzspii(qkjmjmdz)knh'
p2641
I01
sS'rxxn'
p2642
I01
sS'tc'
p2643
I01
sS'rp(qfjnsrj)pnkezmbos'
p2644
I01
sS'(wk)'
p2645
I01
sS'(f)ys(l())'
p2646
I01
sS'duklc'
p2647
I01
sS'u(dws(((aorfw))quoi)mhyn)'
p2648
I01
sS'ugqbo(zbvfnczzk)neky'
p2649
I01
sS'(hwxmmx'
p2650
I00
sS'jryyw)rw'
p2651
I00
sS'eoyf'
p2652
I01
sS'(xe)u(f)trya)hn'
p2653
I00
sS'ahm((wh(())u)'
p2654
I00
sS'(bwus(n)b)uxcq'
p2655
I01
sS'mpv'
p2656
I01
sS'ojvu'
p2657
I01
sS'(((p)dq)lykk)jdbjnpc'
p2658
I01
sS'(fyhjbcrevxhsqtfymttgetyfcvvcy'
p2659
I00
sS'(i)'
p2660
I01
sS'((jncallw)vfw'
p2661
I00
sS'lb(q)a'
p2662
I01
sS'v(b)sqkhdgfue'
p2663
I01
sS'mentbptq(q(o)xqhvewpisyp)wmryl'
p2664
I01
sS'ktujdkp'
p2665
I01
sS'rle)x'
p2666
I00
sS'(do)gk'
p2667
I01
sS't(()sp(dqysmsmnhpjdq'
p2668
I00
sS'sfunky'
p2669
I01
sS'cwbdd(()yrnb)g'
p2670
I01
sS'zcvhwjqqa'
p2671
I01
sS'baeg(swal)'
p2672
I01
sS'po(an)p'
p2673
I01
sS'((b(bnj(gb))b)pqkrab)sthxeaoed'
p2674
I01
sS'wbdtkb(igas)v'
p2675
I01
sS'mqzgbofuzdel'
p2676
I01
sS'(neu('
p2677
I00
sS'jnq)'
p2678
I00
sS'ius())'
p2679
I00
sS'(gn'
p2680
I00
sS'ykox)'
p2681
I00
sS'u((x))l'
p2682
I01
sS'rgytwk(uesq'
p2683
I00
sS'(gh'
p2684
I00
sS't)'
p2685
I00
sS'osm'
p2686
I01
sS'r(d()'
p2687
I00
sS'gr)lqvwk(xeo)jipj)zqzlvhoqylll'
p2688
I00
sS'(ga'
p2689
I00
sS'(zjhrd'
p2690
I00
sS'((oxajc())(qukpbiey)'
p2691
I00
sS'we(arvtc'
p2692
I00
sS'u)obbro'
p2693
I00
sS'tq(yiovwynfm'
p2694
I00
sS'x(d(asfkmpchofjxwgofcvhta)st)h'
p2695
I01
sS'pasl'
p2696
I01
sS'y(pnd(tn)qlg)'
p2697
I01
sS'b(uxzvwbp'
p2698
I00
sS'zrwekg'
p2699
I01
sS'uio(ve)qtvqqyx)cbojw'
p2700
I00
sS'()tqtlg(pmnrxxnk)srckpnluabqiv'
p2701
I01
sS'qiqxhlclk(iuhu)fqszf'
p2702
I01
sS'fe(w(ul)(sp)fxwvkw)f'
p2703
I01
sS'ef(ccrv(t(oar)kfcvo)uxpzsnp)un'
p2704
I01
sS'ryzw'
p2705
I01
sS'xcynxoa)twooccvjejhnqpboyrdimt'
p2706
I00
sS'nehxrhx'
p2707
I01
sS'uqm('
p2708
I00
sS'q(nveuism'
p2709
I00
sS'gm'
p2710
I01
sS'kffff))t'
p2711
I00
sS'nztty(()fj'
p2712
I00
sS'ok(k'
p2713
I00
sS'vdkjg)nks'
p2714
I00
sS'pliyrd(()xpkxdjhdqy)'
p2715
I01
sS'(q)kvqkimmu'
p2716
I01
sS'll)(()f'
p2717
I00
sS'yc((po)u'
p2718
I00
sS's(pzfzj))np)rft'
p2719
I00
sS'rqq((u)l)gjcxlc'
p2720
I01
sS'yvfnxs(rrxok))g'
p2721
I00
sS'z(jy)(zepzc)'
p2722
I01
sS'(ua(chvnzznv)huq)kdzvidq)'
p2723
I00
sS'stwp)shlvkugnh'
p2724
I00
sS'f(tt)r(pe)'
p2725
I01
sS'slmd'
p2726
I01
sS'tg(u))jbmxu'
p2727
I00
sS'd(qq)j(ma'
p2728
I00
sS'(xh)(l'
p2729
I00
sS')utb'
p2730
I00
sS'spusxnjlt'
p2731
I01
sS'vqmza(wywo)q'
p2732
I01
sS'bmjg'
p2733
I01
sS'rll)mm'
p2734
I00
sS'p)a'
p2735
I00
sS'oqzo(o)w'
p2736
I01
sS'rbh'
p2737
I01
sS'(x()jjzb)q'
p2738
I01
sS'foil(uj))sy'
p2739
I00
sS'kx(vw(sdoshppdlmwohijjwzb'
p2740
I00
sS'qc((l(tdb()x)ccve)wxyeub)zlbkt'
p2741
I01
sS'()g)(jjjkna'
p2742
I00
sS'u(jxsz'
p2743
I00
sS'jmgdedh((jtpeui)fmtl'
p2744
I00
sS'q(nt(wwmisvlrlhkjbbf)gxhoa)sez'
p2745
I01
sS'((j)kmtojcppn)ltbzrx'
p2746
I01
sS'xfpp'
p2747
I01
sS'wwlajlgp)txx'
p2748
I00
sS'd((jg)djc)ms'
p2749
I01
sS'qawxozo(r)oggb'
p2750
I01
sS'(uzjy(w)e)bu'
p2751
I01
sS'()m(ojpj)etv'
p2752
I01
sS'jw)u'
p2753
I00
sS'auxm(((())pex)uqnas)'
p2754
I01
sS'(blt)()yw'
p2755
I01
sS'((gl()y())()tnqqrhgecs)clulgpr'
p2756
I01
sS'dp(exqvsif'
p2757
I00
sS'fyyd((b)'
p2758
I00
sS'uk((h)djv)k'
p2759
I01
sS'jtrpylxn'
p2760
I01
sS'xcgxyg(ie)'
p2761
I01
sS'(o(jo())b(alm))))ttt'
p2762
I00
sS'gshdtfibou'
p2763
I01
sS'z()czas(t)i)bm'
p2764
I00
sS'xo)'
p2765
I00
sS'(k)dh()((i)bayzx)g)n((im)'
p2766
I00
sS'dglrkuobr'
p2767
I01
sS'wui((f(t)'
p2768
I00
sS'(fwea)v'
p2769
I01
sS'fe(bcqp(svg)'
p2770
I00
sS'undgm(pcqtw)k'
p2771
I01
sS'to(bx)u'
p2772
I01
sS'u((('
p2773
I00
sS'(r)fxcuk'
p2774
I01
sS'ut(s(mfm))ny'
p2775
I01
sS'ybmwnzbgimvf'
p2776
I01
sS'holtp(bvsaq)'
p2777
I01
sS'digzoe((occxx)nrzmyoqqapnoa)))'
p2778
I00
sS'o(pyf)el(nrx)c'
p2779
I01
sS'xxxtvaatr(())waaaa)s'
p2780
I00
sS'd(x)znar'
p2781
I01
sS's(as)jfpqj'
p2782
I01
sS'hhaxqthxxw)owqhgqllpxzcor'
p2783
I00
sS'(xvmb)k'
p2784
I01
sS'seh(r)rgwv)'
p2785
I00
sS'q((en)aca(vqjdunwh)f'
p2786
I00
sS'p()gamnq)sh'
p2787
I00
sS'lh()xkgkc'
p2788
I01
sS'zpua'
p2789
I01
sS'ctkspgv'
p2790
I01
sS'ee((rvjx((inou)z)rz))w)oh'
p2791
I00
sS'tw(taulltql'
p2792
I00
sS'xrjoa'
p2793
I01
sS'(ztsb)sm'
p2794
I01
sS'(da))tux(b()qebyovqvrwkid)igjo'
p2795
I00
sS')(apqxm(bzrreufxjhehflbiirgcw('
p2796
I00
sS'(hzk'
p2797
I00
sS'yxymzovml()iqj'
p2798
I01
sS'(dgq)jkgjkz'
p2799
I01
sS'c()q(g))xtwf'
p2800
I00
sS'(jpcjd'
p2801
I00
sS'b(zrnzrp)duia'
p2802
I01
sS'xmag)ip())vr'
p2803
I00
sS'of)qjn'
p2804
I00
sS'gu(a((llb(e)mq))itbqhhm)n'
p2805
I01
sS'xo(()bkyh)'
p2806
I01
sS'(a(jen)ku)u'
p2807
I01
sS'(llpiv)i'
p2808
I01
sS'ihfnh(gohfzssi)'
p2809
I01
sS's(((jom(j)twx)u))yrxoijxh'
p2810
I01
sS'fgqxu'
p2811
I01
sS'kqoorm(((g)gpbe)zke)oaetofqkzh'
p2812
I01
sS'q((ll)fci'
p2813
I00
sS'm(yyviwrcr)f'
p2814
I01
sS'es(jeb((tpz)rqbnmjjtrqjeckqzi)'
p2815
I00
sS'zzd)((ye((ydes))jqydndt))gv)))'
p2816
I00
sS'tsvglwh'
p2817
I01
sS'nh(sy)i()'
p2818
I01
sS'()(nvzsg)svro'
p2819
I01
sS'weamhae(vl))'
p2820
I00
sS'(pcvkjujvvjiyv'
p2821
I00
sS'(t(skcw()yujbv)y)szm'
p2822
I01
sS'sccz((scgi)nh)'
p2823
I01
sS'yqoyuovekz'
p2824
I01
sS'(oqfwnbshuy'
p2825
I00
sS'g((gcvz)ccclkt'
p2826
I00
sS'(((((kictcpe)nef)x)t)opp)'
p2827
I01
sS'i)(r'
p2828
I00
sS'c)ldeg'
p2829
I00
sS'kgj(rqaffhxkngzdmqgntcbl)ktbiz'
p2830
I01
sS'kibk)()o'
p2831
I00
sS'mx(wn'
p2832
I00
sS'()()(ufw(v))sg'
p2833
I01
sS'yn(z(kxfzmkboe)ek)z('
p2834
I00
sS'v'
p2835
I01
sS'zp()fxxllbax'
p2836
I01
sS'(n((zcyfzpz)rakseumt)b)tn'
p2837
I01
sS'likkxnjfgs)'
p2838
I00
sS'kly'
p2839
I01
sS'uya(vv))xhdq'
p2840
I00
sS's(()hrcjvvs'
p2841
I00
sS'(mi(ldyc)k)a'
p2842
I01
sS'hqj)tmo'
p2843
I00
sS'mmu(((ruvtl)p'
p2844
I00
sS'(n)k()ye'
p2845
I01
sS'(run((fkme)n)gu'
p2846
I00
sS'n()nbw(((fuuawp))xiitc)pw'
p2847
I01
sS'(yioempv'
p2848
I00
sS'w(()qbgl)'
p2849
I01
sS'gr((gqllddta)xcvgo)ejaewf'
p2850
I01
sS'lxd(fhuhm'
p2851
I00
sS'lbqcc'
p2852
I01
sS'f)'
p2853
I00
sS'(j(cx)k'
p2854
I00
sS'qdkvil'
p2855
I01
sS'h(xghuj(rsae)lzs)vii'
p2856
I01
sS'(uuffglelmq'
p2857
I00
sS'(gpbhpygyhozdq)zzqahzyzkw'
p2858
I01
sS'((jci))qyr)'
p2859
I00
sS'x(e'
p2860
I00
sS'sai(u())xbf'
p2861
I01
sS'l(aett(gxwscbkynp)jfaly)n'
p2862
I01
sS'e(v))iggrlu'
p2863
I00
sS'(ucevdpup)c'
p2864
I01
sS'(()evmyfzi)avk'
p2865
I01
sS'(v((()cb(urx)cmmf)w))vygu'
p2866
I01
sS'ofnkd)w'
p2867
I00
sS'nys()ykbayr'
p2868
I01
sS'z(be)'
p2869
I01
sS'g(fv(w(mkpcob)qjfvvlyz)eh'
p2870
I00
sS'(x)ez()m'
p2871
I01
sS'eb((hvccwbtei)'
p2872
I00
sS'oqlkeo(dt)'
p2873
I01
sS'bjrltyzrs'
p2874
I01
sS'fccc(caiuzutizmlyfw)qzvuoagtzf'
p2875
I01
sS'((nqr()dvcb)vssgnqxr'
p2876
I00
sS'o(seoatxkv)nxn'
p2877
I01
sS'wqwbwictfjvyhp'
p2878
I01
sS'v(qk(nyzy)fexzovz)uv'
p2879
I01
sS'g(myxx('
p2880
I00
sS'(k(rc)ll)gcbsj'
p2881
I01
sS'ft'
p2882
I01
sS'zrz((lf)iq)sy'
p2883
I01
sS'(hmtz)q'
p2884
I01
sS'nw(l(vspktpbln)'
p2885
I00
sS's(qqdc(z)wrw)eh'
p2886
I01
sS'fra(((()))pzd'
p2887
I00
sS'xebzoioefx)n'
p2888
I00
sS'igxe(ushg(pz)ns'
p2889
I00
sS'v(ldtm()(rwk)liqqqmn'
p2890
I00
sS')zggu'
p2891
I00
sS'jka(hzbn)vm)'
p2892
I00
sS'd(k)px(bvyg)'
p2893
I01
sS'ff'
p2894
I01
sS'fg'
p2895
I01
sS'bxmz(pgn'
p2896
I00
sS'axx((pa)'
p2897
I00
sS'fj'
p2898
I01
sS')tu'
p2899
I00
sS'fo'
p2900
I01
sS'a'
p2901
I01
sS'mcvykbltqx)su'
p2902
I00
sS'jwrwxp'
p2903
I01
sS'd(oq)'
p2904
I01
sS'wkrzhzceeb'
p2905
I01
sS'q(yb)hbqdms'
p2906
I01
sS'(j)ath'
p2907
I01
sS'f(y)fvzzj'
p2908
I01
sS'swfi(n)s)j'
p2909
I00
sS'q()d(wagsa'
p2910
I00
sS'f(xo(((itpq)hvo)b))j'
p2911
I01
sS'f)f'
p2912
I00
sS'f)d'
p2913
I00
sS'rfrof'
p2914
I01
sS'xc(e'
p2915
I00
sS'hr(pm)'
p2916
I01
sS'j((((j)hezar))zl)kcs'
p2917
I01
sS's(wj'
p2918
I00
sS'f(ky(wf)okeecoy'
p2919
I00
sS'(vwdct(cluprx)ejsn)fjssrq'
p2920
I01
sS'kmhq()qq'
p2921
I01
sS'o()n(i)(ehufapnjxe)j'
p2922
I01
sS'(((qg()rpx'
p2923
I00
sS'xhxe'
p2924
I01
sS')shvlbe'
p2925
I00
sS'()()()uz(qwq)'
p2926
I01
sS'tkqh(cdd)'
p2927
I01
sS'wdxfae'
p2928
I01
sS'luelttb()'
p2929
I01
sS'(hjmyl(suj)iowrceld)sehjb'
p2930
I01
sS'k(ru)l'
p2931
I01
sS'wdnxtw()fjfo'
p2932
I01
sS'nt)j'
p2933
I00
sS'tnsdwwgjx)'
p2934
I00
sS'(ywyqubdzy)kl'
p2935
I01
sS'yn(fk(oug)))e)'
p2936
I00
sS'(yrlru'
p2937
I00
sS'inuqhv'
p2938
I01
sS'a(uyjyeu)'
p2939
I01
sS's(w))'
p2940
I00
sS'rzg)b'
p2941
I00
sS'kfq'
p2942
I01
sS'ms(djug)qqyjfop'
p2943
I01
sS'(rcvsy'
p2944
I00
sS'q(nwvggfnx'
p2945
I00
sS'suai((lmmw)cfefi)wjpwhl)b'
p2946
I00
sS'ciwttfqssofa(r'
p2947
I00
sS'moih(q))prb'
p2948
I00
sS'()nirxzs'
p2949
I01
sS'x(o(gh(wm)d))d'
p2950
I01
sS'qkb'
p2951
I01
sS'zvjymn'
p2952
I01
sS'r(ke(ez(wjgdposnm)mxugn))mqrsm'
p2953
I01
sS')()ll'
p2954
I00
sS'(yfat(p(q)gecng)i)gettgdo'
p2955
I01
sS'fee)hwu(eeet(dhaaazzdjsda'
p2956
I00
sS'guc'
p2957
I01
sS'(())xco'
p2958
I01
sS'nppl)c'
p2959
I00
sS'(hg)al'
p2960
I01
sS'evi'
p2961
I01
sS'gicmkeoum'
p2962
I01
sS'aukw(ui)awc'
p2963
I01
sS'sqdixxa)vcc'
p2964
I00
sS'((afptih)ffnrqtzxtaqmra)x'
p2965
I01
sS'x(qi(wp))cn'
p2966
I01
sS'fpks(tfa)zot'
p2967
I01
sS'(ccsttk((sflly)xrrbt)qqkhnigu)'
p2968
I01
sS'ff)'
p2969
I00
sS'lorauh'
p2970
I01
sS'(cvhllpe'
p2971
I00
sS'siabpriix)j'
p2972
I00
sS'hbcmu)xherwvzr'
p2973
I00
sS'qr()sz(f(voplga'
p2974
I00
sS'xzj(j'
p2975
I00
sS'oa(b)(fvs)tid'
p2976
I01
sS'gwn(wj)igc'
p2977
I01
sS'ep(bg)o'
p2978
I01
sS'pvrjss)kvdd'
p2979
I00
sS'ngdba()um()k'
p2980
I01
sS'dcuqhc()((t)ktbbm))ljdrsp'
p2981
I00
sS'ybm)(nsk'
p2982
I00
sS'ntumu(((kuuedrt)qqpl)cx))vyuog'
p2983
I00
sS'sp(a))qo'
p2984
I00
sS'((qx((()whuvhft))xl)'
p2985
I00
sS'(xk)nnn'
p2986
I01
sS'stxlbkvgn'
p2987
I01
sS'za(c)itspz'
p2988
I01
sS'(ttxm(((e(zz)))'
p2989
I00
sS'(((y())yeuz))'
p2990
I01
sS'tgpj(xqmab)g'
p2991
I01
sS')zw'
p2992
I00
sS'wkrov(dd'
p2993
I00
sS'tafiswmt'
p2994
I01
sS'h(((beary)))odcc)z)zknhxs'
p2995
I00
sS'dzvqdsberqmkyuz'
p2996
I01
sS'ot((malaoepii)w)k)rs'
p2997
I00
sS'vyk(uu)p)cx'
p2998
I00
sS'hl()vgsni)k'
p2999
I00
sS'dtttk(x)sv'
p3000
I01
sS'o(pyfegel(nrx)c'
p3001
I00
sS'ccf(j(z)eczst'
p3002
I00
sS'kfa'
p3003
I01
sS'keb)a'
p3004
I00
sS't(tmb'
p3005
I00
sS'(kz))ez()m'
p3006
I00
sS'fa(deemarj'
p3007
I00
sS'(ffoyf'
p3008
I00
sS'pdoeytky)mplk'
p3009
I00
sS'sublwloti'
p3010
I01
sS'oz)flzwkpnrnn'
p3011
I00
sS'id(i)ph'
p3012
I01
sS'qyupsu(t(zgnma)rugwh)d)rt'
p3013
I00
sS'if()y(c(rksoy))hfzzexoebknjkhj'
p3014
I01
sS'qgtpzqv(wqebcj)'
p3015
I01
sS'(ynpnam)zkia'
p3016
I01
sS'e(lm))xi'
p3017
I00
sS'jbntcrq'
p3018
I01
sS'zvs(bio)'
p3019
I01
sS'h(o)r'
p3020
I01
sS'(dr(zp((uvyy)sspy)bb)))db'
p3021
I00
sS'guq'
p3022
I01
sS'duj)frf'
p3023
I00
sS'uqqsskkmmuwfs))teqqc'
p3024
I00
sS'ekxdkz(zcrnkkx'
p3025
I00
sS'e(v)gglu'
p3026
I01
sS'z()czf(ki)bm'
p3027
I01
sS'c(l)wbagsvowh)'
p3028
I00
sS'(hsptccbbop))oj'
p3029
I00
sS'((xwjgw)p)ydsx'
p3030
I01
sS'xedbpgihrs'
p3031
I01
sS'ghhii(mgpx(zjxj))tlxlyhrnnvg)b'
p3032
I00
sS'agyie(sp(f)tstzoaphos)kbhonmqn'
p3033
I01
sS'h)g)ql'
p3034
I00
sS'b(dvoxibhsminorqrsfegbqoz'
p3035
I00
sS'grgf(qsl(vwodqc))e)nbdlrt'
p3036
I00
sS'(idcs'
p3037
I00
sS'guu'
p3038
I01
sS'wztizd'
p3039
I01
sS'(v)l'
p3040
I01
sS'(dfk)y)fs'
p3041
I00
sS'br()rk'
p3042
I01
sS'xiw(fwyywo'
p3043
I00
sS'qabxs(())wyb'
p3044
I01
sS'awiu'
p3045
I01
sS'(xh(r(e()wlfywyhxd))i)ehc'
p3046
I01
sS'o((((()(yjfvebd)e)bf))p)w'
p3047
I01
sS'shudmfagwlfu'
p3048
I01
sS'gf)'
p3049
I00
sS'jxyc()xjatgtf'
p3050
I01
sS'fammf))hvz'
p3051
I00
sS'lfgrn('
p3052
I00
sS'(ji'
p3053
I00
sS'(ewug'
p3054
I00
sS'lvhk)'
p3055
I00
sS'j()xd((k(fzuvpwyhzw))e(eo'
p3056
I00
sS'h(n(()))efist'
p3057
I01
sS's(bdzkiuqfo'
p3058
I00
sS't(msdheae(n)))p'
p3059
I00
sS'(mbtwxkedvusx)z'
p3060
I01
sS'ncgztdbq(dupj)o'
p3061
I01
sS'c(xxe((hrts)vm)iwikic)qbzjrmqf'
p3062
I01
sS'nugn(loqjeufhv'
p3063
I00
sS'w'
p3064
I01
sS'bpv()b'
p3065
I01
sS'r(())yw(kihz)rgasjlypzifd'
p3066
I01
sS'tfgp)(()l)z'
p3067
I00
sS'q(mmaixp(q)lo'
p3068
I00
sS'wl()yowi'
p3069
I01
sS'eeipta)q'
p3070
I00
sS'iauo(ct)nlzjb'
p3071
I01
sS'lxgqp)'
p3072
I00
sS'ax)fc'
p3073
I00
sS'pqi((avk'
p3074
I00
sS'aem)'
p3075
I00
sS'()trb'
p3076
I01
sS'(zm)kdig'
p3077
I01
sS'xfjp()wjt(gbod)bzprk'
p3078
I01
sS'vi)odav'
p3079
I00
sS'ly(pirbzofcodqkayynllo)nusrojc'
p3080
I01
sS'rnf(vm)'
p3081
I01
sS'q(q(tf)lvkcze)'
p3082
I01
sS'aoeassxdsxpj'
p3083
I01
sS'gsoi(v)dvw'
p3084
I01
sS'vccofnw'
p3085
I01
sS'qlsgri(('
p3086
I00
sS'wh(n(l)b)yd'
p3087
I01
sS'xyu((((fm)))'
p3088
I00
sS'g(v)xvnche)e'
p3089
I00
sS'((aafplmih)ffnrqtzxtsaqqqmra)x'
p3090
I01
sS'pfzxp'
p3091
I01
sS'kjeahvstvxuqq)p'
p3092
I00
sS'iw(axz)ahchmm'
p3093
I01
sS'(()hj(mnzxrl))h)dukvtjpbe'
p3094
I00
sS'(f)dv)'
p3095
I00
sS'hlp(l)qdxqyf(qg'
p3096
I00
sS'((bw))(w)iu)r'
p3097
I00
sS't((e)ppup'
p3098
I00
sS'h(jphh(fkkccc)q'
p3099
I00
sS'x(mjeyqe)kmd('
p3100
I00
sS'(z)rbo(s((hanrqqzr)jo)qqjw)qxe'
p3101
I01
sS'mtfccbn)qllner'
p3102
I00
sS'ho()wvlvoqwg'
p3103
I01
sS'erd((z))'
p3104
I01
sS'dfg'
p3105
I01
sS'(yqzz'
p3106
I00
sS'z(oerw'
p3107
I00
sS'iwkfet'
p3108
I01
sS'k(jygagakj'
p3109
I00
sS'tyarmjhwknuf'
p3110
I01
sS'n()ckgj'
p3111
I01
sS'bmpiyy)nnn'
p3112
I00
sS'vo(l'
p3113
I00
sS'ptrr()vye'
p3114
I01
sS'rcdep'
p3115
I01
sS'sikmloak(c))'
p3116
I00
sS'pcl(jf'
p3117
I00
sS'kz((()(oiqqri)tveepuorwrqz))tu'
p3118
I01
sS'((npjb)w)q'
p3119
I01
sS'(khag'
p3120
I00
sS'es((xs)lcm'
p3121
I00
sS'mpq(xhr'
p3122
I00
sS'tbonl'
p3123
I01
sS'(pyai((yxeaqm)hb)mlinjpbxhhnl)'
p3124
I01
sS'qrr)'
p3125
I00
sS'lubjmt'
p3126
I01
sS'ahjekvv(y)ow'
p3127
I01
sS'()ca(l'
p3128
I00
sS'c(fb(eerp(bt(yhhbfomk)hdffettc'
p3129
I00
sS'oyyolrr)'
p3130
I00
sS'jc(kn'
p3131
I00
sS'luelttbtg)'
p3132
I00
sS'vmlw(ka))hxmm'
p3133
I00
sS'(aqukk)p)i'
p3134
I00
sS'm(sxlh)f'
p3135
I01
sS'(o(um))cah)dqq'
p3136
I00
sS'wz)hlemo'
p3137
I00
sS'd((((ev())g))c)j)eif'
p3138
I00
sS'c((fxzjputu)'
p3139
I00
sS't(nd'
p3140
I00
sS'rihlldqiw)fzq'
p3141
I00
sS'fnmzjnjzn'
p3142
I01
sS'w()hz'
p3143
I01
sS'vx(ajkjthixwg'
p3144
I00
sS'(zp)ff(xfdhb'
p3145
I00
sS'(wemd(ryoogh)t)'
p3146
I01
sS'xsj(hyqv))'
p3147
I00
sS'gvixmmmlxs'
p3148
I01
sS'dzvqd(erqmkyeaz'
p3149
I00
sS'aacbbw)'
p3150
I00
sS'i(maxzahchmm'
p3151
I00
sS'krey'
p3152
I01
sS'gn((m((e))w)thye)z)nn)vem'
p3153
I00
sS'(krg)z'
p3154
I01
sS')vjodgdxjh'
p3155
I00
sS'xgrt'
p3156
I01
sS'ai()u'
p3157
I01
sS'hh(gf)x(stgic'
p3158
I00
sS'(moccc))))))'
p3159
I00
sS'esjm(n)e)b'
p3160
I00
sS'z(mn)u(wj)bpkp'
p3161
I01
sS'vhovnaqr)bpwc'
p3162
I00
sS'rhgl)vvvv()z'
p3163
I00
sS'laluzsl'
p3164
I01
sS'lb(sla)tsb'
p3165
I01
sS'qqq(ph)zfhn'
p3166
I01
sS'ix)qw(())fsfi'
p3167
I00
sS'lkjgdwu'
p3168
I01
sS'nluy'
p3169
I01
sS'((miwk)hd)w'
p3170
I01
sS'ptru'
p3171
I01
sS'(zxjei()m)myealplouc'
p3172
I01
sS'(xo(v((ay)t)n)wxm)qh'
p3173
I01
sS'ekxdkzzcyrnkx'
p3174
I01
sS'ptrq'
p3175
I01
sS'tyqdh((mghuii)nacn)g'
p3176
I01
sS'(gtkt(cmnew))'
p3177
I01
sS'(((ryveo)uxj))'
p3178
I01
sS'(((ula'
p3179
I00
sS'ibfs(o(ravcb)xg'
p3180
I00
sS'qb)'
p3181
I00
sS'n()j)ksqgorrbkkteyveiwiii'
p3182
I00
sS'(ax(((t(uqusk)fjjqw))awchhq)w)'
p3183
I01
sS'zya((((nb)pdxtxfn)nynuc)v'
p3184
I00
sS'ibnxe((s)bp)'
p3185
I01
sS'(r(((ovj(qvtr)pb)b)k)vjh)'
p3186
I01
sS'(c(wfuccilso'
p3187
I00
sS'efkkrgd(()'
p3188
I00
sS'sumpo'
p3189
I01
sS'wcuvk(h)snz'
p3190
I01
sS'wwrve)'
p3191
I00
sS'r(wsqfcrfqky'
p3192
I00
sS'cce'
p3193
I01
sS'npfxwaobpmugri'
p3194
I01
sS'nfouaf(n)tvppqw'
p3195
I01
sS'(ml(ldecc))k)a'
p3196
I00
sS'(n((q)vjvesqreuqqnc)ulssh'
p3197
I00
sS'(q(nslki)o)t'
p3198
I01
sS'ci(vuyjuqw'
p3199
I00
sS')ey'
p3200
I00
sS'(pfunm(bycfbaipk))fphrnamyyuth'
p3201
I01
sS'jy(ov(f((kbahpkakvsqlnnjz)h)))'
p3202
I01
sS'big(l)((aoqtetvmh))k'
p3203
I01
sS'v(l(valp'
p3204
I00
sS'gekgtscg)fe'
p3205
I00
sS'jiqq'
p3206
I01
sS'o(ttxqpjca)'
p3207
I01
sS'crwarde'
p3208
I01
sS'qhlesdd)'
p3209
I00
sS'pkyuizcrphoy'
p3210
I01
sS'q(((xdfnfpwujhyfefxdwt)pyzao))'
p3211
I01
sS'xv(l()()xwp)df'
p3212
I01
sS'(lj()r)zq)krrd'
p3213
I00
sS'dvo(xi((gu)di))'
p3214
I01
sS'rqe(blmn'
p3215
I00
sS'iwl()ldvsktwimmvesog'
p3216
I01
sS'seizx'
p3217
I01
sS')ee'
p3218
I00
sS'd((ja(mzlzstjkdyszjlhj))wnxl)c'
p3219
I01
sS'(bwo'
p3220
I00
sS'wu(zi)x'
p3221
I01
sS'ceqjsj)'
p3222
I00
sS'(a(z)jks)k'
p3223
I01
sS'(uppsaagf'
p3224
I00
sS'(a(i))x'
p3225
I01
sS'w(ugsmzunct)'
p3226
I01
sS'ugf'
p3227
I01
sS'njkk'
p3228
I01
sS'gb(y)p'
p3229
I01
sS'(n)oqua(aiz)'
p3230
I01
sS'tbo('
p3231
I00
sS'()ek()'
p3232
I01
sS'a((kopzffo))l)'
p3233
I00
sS'q(qt(v))bntzrjmix)yg'
p3234
I00
sS'htn(awwu'
p3235
I00
sS'ugp'
p3236
I01
sS'(t)mzxtw()ss'
p3237
I01
sS'((o))ldb'
p3238
I01
sS'i)kkw(cfwxequrbis(kytjllznrqls'
p3239
I00
sS'jvwhiiw((ravaahaattb)n(z)'
p3240
I00
sS'lbd(wiplr'
p3241
I00
sS'dr()ejbh(vtsg'
p3242
I00
sS'bdk((om)g'
p3243
I00
sS'ze(mtb'
p3244
I00
sS'tw(l)'
p3245
I01
sS'(md)(l)awklf'
p3246
I01
sS'q(()wq(bxc)g'
p3247
I00
sS'ze)n'
p3248
I00
sS'((uk)kj(lk))'
p3249
I01
sS')yu'
p3250
I00
sS'higwpgce)'
p3251
I00
sS'ezvx(eajk)ybps'
p3252
I01
sS'u(sd)'
p3253
I01
sS'th)bpe'
p3254
I00
sS'fzuagp'
p3255
I01
sS'((((graxgu)gwbtf)fzndrhtyi))nv'
p3256
I01
sS'blbssoiways'
p3257
I01
sS'pedkw'
p3258
I01
sS'fzi)a'
p3259
I00
sS'r(w(am((h))tdfx)tfp)pwqbx'
p3260
I01
sS'cckf(p'
p3261
I00
sS'((uxwx))uqa'
p3262
I01
sS'hya(((s((mn)nq)tvuu)mfo)aay)fk'
p3263
I01
sS'(q'
p3264
I00
sS'sikfxt'
p3265
I01
sS'zkylemoopju'
p3266
I01
sS'lohd(sosesr)cvf'
p3267
I01
sS'fccc(caiuotizhlyfw)qzvuooagtzf'
p3268
I01
sS'oba(sxnkwsbo)'
p3269
I01
sS'xymjs()(a)'
p3270
I01
sS'rkxvzkr'
p3271
I01
sS'k(nrjhcvjvtr'
p3272
I00
sS'fho()tez'
p3273
I01
sS'aqgfh'
p3274
I01
sS'(uee(wfbikao)onfddd)pppehytmmm'
p3275
I01
sS'ki(jokd)'
p3276
I01
sS'k(jfm'
p3277
I00
sS'(pe()gl'
p3278
I00
sS's(i(())wpkya)lzftbznsxzyg'
p3279
I01
sS'yfd(ech)vvr'
p3280
I01
sS'ldwqnvy'
p3281
I01
sS'(q)rvly(u()j)'
p3282
I01
sS'q(e(tgbycn))f)'
p3283
I00
sS'x(()fqjqpiimws'
p3284
I00
sS'wu(q)))'
p3285
I00
sS'c()rra'
p3286
I01
sS's(tuqaw'
p3287
I00
sS'kh)uuucccyy'
p3288
I00
sS'ueec((al))n'
p3289
I01
sS'dd((()zkdwzfzod)lh)n'
p3290
I01
sS'k(cvgv'
p3291
I00
sS'(h'
p3292
I00
sS'hy)nirxtzs'
p3293
I00
sS'x)o'
p3294
I00
sS'y(ni)w((pz)qoo'
p3295
I00
sS'(ft)n(zpdqtth'
p3296
I00
sS'uidq()t)aa)p'
p3297
I00
sS'r()s(da)p'
p3298
I01
sS'x)x'
p3299
I00
sS'b(qbbe))bccwo'
p3300
I00
sS'xsj(hyqv)'
p3301
I01
sS'(y)()kduvqox'
p3302
I01
sS'on(x'
p3303
I00
sS'fq)ijwj'
p3304
I00
sS'skj(fr)'
p3305
I01
sS'rgqs(th(adq)ofwwakluybsaqmtc)n'
p3306
I01
sS'vkx)'
p3307
I00
sS'bozb'
p3308
I01
sS'ocsvti'
p3309
I01
sS'afk(t)'
p3310
I01
sS'(avunfaync'
p3311
I00
sS'q(lwj))'
p3312
I00
sS'gmvz)q'
p3313
I00
sS'dzj)owgo'
p3314
I00
sS'jpzgow'
p3315
I01
sS'l()x)'
p3316
I00
sS'(f)lip'
p3317
I01
sS'k)n'
p3318
I00
sS'isqi'
p3319
I01
sS'xjd(w((ait)rfpisz)si)dkpu'
p3320
I01
sS'(((((eob)zzm)tjfpkkp))fxu)hezj'
p3321
I01
sS'xvdapk(jn)l'
p3322
I01
sS'ilxlqasesn'
p3323
I01
sS'ssqekta'
p3324
I01
sS'wepgzyimlp)jff)adluvrzpp)'
p3325
I00
sS'(yq)ueco'
p3326
I01
sS'vmni'
p3327
I01
sS'wcs(a)(rc)'
p3328
I01
sS'b((ell)ou'
p3329
I00
sS'fyd(pb)'
p3330
I01
sS'ibnxm)((((s)bp)'
p3331
I00
sS'jordu'
p3332
I01
sS'or(be)q)wqe'
p3333
I00
sS'(zkvendf'
p3334
I00
sS'gwj)hx('
p3335
I00
sS'(nmmdv)vfvqqv'
p3336
I01
sS'(ljhqgl'
p3337
I00
sS'(x)u(ax()xj)zg'
p3338
I01
sS'(kxpnllp(s)yyftssfwd'
p3339
I00
sS'vum()vb(v)'
p3340
I01
sS'(e'
p3341
I00
sS'sai(uer))xbf'
p3342
I00
sS'fpks(tfae(zzot'
p3343
I00
sS'fiyxqhr'
p3344
I01
sS'(m(n)f)))hqggf'
p3345
I00
sS'vmop()ez((qz)t)'
p3346
I01
sS'(qy'
p3347
I00
sS's'
p3348
I01
sS'fo(r((wn(()rjn))cu)woj)as'
p3349
I01
sS'(p)u)'
p3350
I00
sS'mvwwga(mhc)'
p3351
I01
sS'(og))))iuww'
p3352
I00
sS'c)ux'
p3353
I00
sS'jb(((xwf))pfuf'
p3354
I00
sS'gmg(u)hnoolgn'
p3355
I01
sS'v(wdlctx'
p3356
I00
sS'(e(((okgk)wd)zi)opcdhkkhnib)ge'
p3357
I01
sS'c'
p3358
I01
sS'nuv(ey(eyd)))c)tukeddrcye'
p3359
I00
sS'(()hj(mmnzxrl)))h)dukkw)tjpbee'
p3360
I00
sS'(rdu(((cywk)yqmd))l)'
p3361
I01
sS'kvjy('
p3362
I00
sS'uydvhs'
p3363
I01
sS'bwem(()cmkanhj'
p3364
I00
sS'o((h)((w)))'
p3365
I01
sS'm()nfqgjxdy'
p3366
I01
sS'l(nnpvlu)uxvz))'
p3367
I00
sS'(oraao)))'
p3368
I00
sS'((sewgxkscucnjvod))eumgfe'
p3369
I01
sS'qsua(l)m'
p3370
I01
sS'((j(bsi))()fmi)ztedf'
p3371
I01
sS'tlbsvuejj((x)mn'
p3372
I00
sS')etk'
p3373
I00
sS'v(uq))(uleg)f'
p3374
I00
sS'an()'
p3375
I01
sS'(i(o)uuwlsgbbeox)mff'
p3376
I01
sS'gm)e'
p3377
I00
sS'vd()'
p3378
I01
sS'iitig(u)'
p3379
I01
sS'((ywtttz)q'
p3380
I00
sS'zehwwis()imu'
p3381
I01
sS'(gkx(fw)u)qu'
p3382
I01
sS'v(yl(hrohupvilnn)twor)uws'
p3383
I01
sS'ff(reyfg(ns)'
p3384
I00
sS'dltvpkocrbcus'
p3385
I01
sS'ypp)'
p3386
I00
sS')('
p3387
I00
sS'(n(a))zu'
p3388
I01
sS'(awlc)a(xxmm)fne)cjjddozkssyst'
p3389
I00
sS'tnby(axq)rnnp'
p3390
I01
sS'ibfbywwldaquohq'
p3391
I01
sS'(qqz()x))'
p3392
I00
sS'u()gze'
p3393
I01
sS'fduj(((shacs)y)yxvnc'
p3394
I00
sS'nikgfdsaac(frmavvkzebametdmpbj'
p3395
I00
sS'f(qjvscl)vo'
p3396
I01
sS'w((((fbddfyyxc))dfnn'
p3397
I00
sS'mf(b)ei'
p3398
I01
sS'(qw)()'
p3399
I01
sS't(od)'
p3400
I01
sS'fggg((plxr)v'
p3401
I00
sS'wx(((((px)f)lfr)j)jfgcj)e'
p3402
I01
sS'()mo((()prv)tcqslpcxdyaj)'
p3403
I01
sS'u(((wh(sbxt)))uglvxrg)tmextbvf'
p3404
I01
sS'v(z(rv)(nkgnajjtueqpxfff))iquv'
p3405
I01
sS'idsau)h'
p3406
I00
sS'cb)kho()guu'
p3407
I00
sS'(l(ol)buncda)'
p3408
I01
sS'a(mi'
p3409
I00
sS'jgb(ee(a((glpwll))wwmec)iwggld'
p3410
I00
sS'kiquulrq'
p3411
I01
sS'bstyfc(xeotb)m'
p3412
I01
sS'(c)wd(rhgtum)av'
p3413
I01
sS'gzmq)'
p3414
I00
sS'(yg)'
p3415
I01
sS'boxr((kdxw)d'
p3416
I00
sS')z'
p3417
I00
sS'jv()((ctt)(x)laczsy)oci)q'
p3418
I00
sS')s'
p3419
I00
sS')r'
p3420
I00
sS')u'
p3421
I00
sS')t'
p3422
I00
sS')w'
p3423
I00
sS'xpbw'
p3424
I01
sS'hqqijk(r)xgp)uk'
p3425
I00
sS'jgnh(b)'
p3426
I01
sS'sore)cuprvkq'
p3427
I00
sS')j'
p3428
I00
sS'ze()io'
p3429
I01
sS'xrdr(zjo(wmnnsd)qp)t)ebsn'
p3430
I00
sS'p()a(mq)sh'
p3431
I01
sS')n'
p3432
I00
sS')a'
p3433
I00
sS')qq(rnsqxss)amxymuam'
p3434
I00
sS'i(((yiy)aiuzrkdvba)d'
p3435
I00
sS')e'
p3436
I00
sS'(())))cixk'
p3437
I00
sS'd(o'
p3438
I00
sS'vnq))f'
p3439
I00
sS'())lyy'
p3440
I00
sS')ryzzw'
p3441
I00
sS'aajct(vrnm'
p3442
I00
sS'kyxl(dc)tknt'
p3443
I01
sS'i())wmf'
p3444
I00
sS'(fzhk(bep)ec)lr'
p3445
I01
sS'a(ovu)u'
p3446
I01
sS'd(a'
p3447
I00
sS'fc(((a(xbv)u)tankvohjvref))yv)'
p3448
I00
sS'mjzyuk'
p3449
I01
sS'lfocdya'
p3450
I01
sS'p(qtyppit)'
p3451
I01
sS'hhu(uu'
p3452
I00
sS'szuud)cub)'
p3453
I00
sS'qmd)'
p3454
I00
sS'()))()'
p3455
I00
sS'di'
p3456
I01
sS'khvkzbdibnbzphp)tlil'
p3457
I00
sS'(dv)s(xo(r))ra'
p3458
I01
sS'j)pf'
p3459
I00
sS'(thdbp)t)'
p3460
I00
sS'y((v)ve(pfkl)q)'
p3461
I01
sS'bbfx'
p3462
I01
sS'cuq('
p3463
I00
sS'fdzchceiby)'
p3464
I00
sS'vknus'
p3465
I01
sS'((()ilc(hd'
p3466
I00
sS'f(fexc)piqct'
p3467
I01
sS'a()zjltevoxrju'
p3468
I01
sS'(bpkxeh)jt'
p3469
I01
sS'(y)wo(thcjwrf)k'
p3470
I01
sS'sx()xqrliyw'
p3471
I01
sS'tdfkmx(d)ahtam'
p3472
I01
sS'(dwdl(kfstm)gt)'
p3473
I01
sS'yu(()ha)'
p3474
I01
sS'lghtul'
p3475
I01
sS'dytk()edsw'
p3476
I01
sS't(f)bpe'
p3477
I01
sS'c(czkv'
p3478
I00
sS'(pjmd)czegl'
p3479
I01
sS'jtv)rokf'
p3480
I00
sS's()kgizw'
p3481
I01
sS'(bw)'
p3482
I01
sS'f((o(jaikjysqd)))eyzmegxw'
p3483
I01
sS'ndkry(fza)vi'
p3484
I01
sS'(u)id'
p3485
I01
sS'mu(ruvtl)p'
p3486
I01
sS'g(ghjd(ozb)faal'
p3487
I00
sS'a)p'
p3488
I00
sS'eua(dxym)m)ff'
p3489
I00
sS'hd)n'
p3490
I00
sS'awakvaqv'
p3491
I01
sS'()gum'
p3492
I01
sS'()e(((d)piv)epqsjql)rgtaa'
p3493
I01
sS'((ofv(ic(cclmajbt))aoo))qqjjtq'
p3494
I01
sS'waohmv'
p3495
I01
sS'gladzzp(l())zx'
p3496
I01
sS'isclhauwuo'
p3497
I01
sS'uo()()(b)h'
p3498
I01
sS'syc'
p3499
I01
sS'r(l)zv'
p3500
I01
sS'(mq)hvz'
p3501
I01
sS'(dwh)e)(korhl)baowtk'
p3502
I00
sS')auq'
p3503
I00
sS't)j'
p3504
I00
sS'(c()'
p3505
I00
sS'syd'
p3506
I01
sS'hnn()hj(atpsqraoageobflktep)ef'
p3507
I01
sS'mo(z()bhog'
p3508
I00
sS'(d)y'
p3509
I01
sS'bzoktgs(e(azqewqm)p)bbcgjxvyvi'
p3510
I01
sS'(bidlkmk'
p3511
I00
sS'(xjyg(grrl)kevchj)ce'
p3512
I01
sS'ktgswf'
p3513
I01
sS'ycdt(m'
p3514
I00
sS'(d)g'
p3515
I01
sS'syv'
p3516
I01
sS'tzkjabs'
p3517
I01
sS'mndm(yrkkgox)xk)e)uuemizl'
p3518
I00
sS'r(p)lmy'
p3519
I01
sS'qkdoy'
p3520
I01
sS'((jetzzk))fl)k'
p3521
I00
sS'ljwbe'
p3522
I01
sS'tn()q(()b)t'
p3523
I01
sS'j(((vlplgeuh)a)jrna)'
p3524
I01
sS'r()glbngsluxil'
p3525
I01
sS'kni'
p3526
I01
sS'bef(tb)w()hvd'
p3527
I01
sS'zmd)'
p3528
I00
sS'knc'
p3529
I01
sS'e(lkkiojybd)y)i'
p3530
I00
sS'agfxfj'
p3531
I01
sS'g(ia))))d'
p3532
I00
sS'cr(kw'
p3533
I00
sS'mb(i'
p3534
I00
sS'dc(((iolllbvfa)sgysscrcc)'
p3535
I00
sS'(sfm(en)lziabb'
p3536
I00
sS'vgf'
p3537
I01
sS'knp'
p3538
I01
sS'h(h(aylwv(h)vlc)lszwiznthr)ptm'
p3539
I01
sS'ekp)ffdageo'
p3540
I00
sS'h(xwv)ox'
p3541
I01
sS'yk(o)we(uwajii)mhezc'
p3542
I01
sS'utrs(mfm))ny'
p3543
I00
sS't(rsovfn)g'
p3544
I01
sS'(()p()ts'
p3545
I00
sS'(ollliwvshs()'
p3546
I00
sS'z(jexktcsbr'
p3547
I00
sS'yjvrbngt'
p3548
I01
sS'r((g)((naqfpyrsf))k)'
p3549
I01
sS'(q((z)'
p3550
I00
sS'c(ddtu)thr'
p3551
I01
sS')dnr'
p3552
I00
sS'((v)((p((()yy)cxnlftyy)hr)nn)u'
p3553
I00
sS'cuv'
p3554
I01
sS'dke(desaufsvpeirybt)'
p3555
I01
sS'px(d(vsbhfp)txbqsxc)'
p3556
I01
sS'kpnj()nn)cgcxvk'
p3557
I00
sS'cuq'
p3558
I01
sS'uztophvkk'
p3559
I01
sS't(w'
p3560
I00
sS'rgz'
p3561
I01
sS'cwddvdiagawckr)'
p3562
I00
sS'htnju'
p3563
I01
sS'()xah'
p3564
I01
sS'rnsdu'
p3565
I01
sS'uya(vv)hdq'
p3566
I01
sS'is)e'
p3567
I00
sS'(hm'
p3568
I00
sS'q(qt(v))bntzrgjmixyg'
p3569
I01
sS't(e'
p3570
I00
sS'nykxyc'
p3571
I01
sS'wsjsat()'
p3572
I01
sS')jp'
p3573
I00
sS'(mm)(rhfw))'
p3574
I00
sS'qsx)eyp'
p3575
I00
sS'vitl(ip)kvhs'
p3576
I01
sS'x()p(l)uovwjqrcngxi)'
p3577
I00
sS'ks((orzdzoz)x'
p3578
I00
sS'rwvh'
p3579
I01
sS'()qcpw(g)hp'
p3580
I01
sS'xt())rmcwz'
p3581
I00
sS'taycri)nxpry'
p3582
I00
sS'xxhr(h)(()u(xcauib)m'
p3583
I00
sS'jcnfc((phn(qx)frryvnujg)jvpy)j'
p3584
I01
sS'ess()b((uqblzzjgkmgyemlokddmiv'
p3585
I00
sS'x(((a)yzgzptgy)ynafcdx)fn'
p3586
I01
sS'e(m)xi'
p3587
I01
sS'vcwuro((oyjmuntkqc)eluf)jgoaus'
p3588
I01
sS'(()((xqmnwodxyuje))ekxfigddni)'
p3589
I01
sS'(lzq)()cxmq'
p3590
I01
sS'buzm)kmanu'
p3591
I00
sS'iwhrnj'
p3592
I01
sS'alrp'
p3593
I01
sS'ig((bim)r'
p3594
I00
sS'i()o((j))'
p3595
I01
sS'oewfj)q'
p3596
I00
sS'hqo((ie'
p3597
I00
sS'()t(hhb(chhcibtjtkmvqbpqggnyhw'
p3598
I00
sS'wv)'
p3599
I00
sS'zxjxefs(shcnz)'
p3600
I01
sS'qfdiq())thnw'
p3601
I00
sS'()t(ghhb(kchc)jtkyqbpq)ggnyhwi'
p3602
I01
sS'kd(l)hbfdsk'
p3603
I01
sS'e(zi)g(gxhx)'
p3604
I01
sS'uga(g()uiju)sk'
p3605
I01
sS'((jevk)fl)k'
p3606
I01
sS'peezj(avw)'
p3607
I01
sS't(((g)))'
p3608
I01
sS'epw((gb)pir'
p3609
I00
sS'(ewzrl((hy)r)j'
p3610
I00
sS'b('
p3611
I00
sS'b)'
p3612
I00
sS'paay(naxb(llaaovpnpfn)zkj'
p3613
I00
sS's()kp()'
p3614
I01
sS'(cgl(()hf)))'
p3615
I00
sS'iu(()(x)nbh'
p3616
I00
sS'()vvqbd(i)q'
p3617
I01
sS'ugvnk(ysh(s(tjsvkg)korsnaxfmo)'
p3618
I00
sS'wz(j(ijnnlzbuqydoaxuhqlu)zqg)w'
p3619
I01
sS'dan(rtvtfrjx)i'
p3620
I01
sS'(qs)mn(rxi)j'
p3621
I01
sS'duuxdxzytj)ybj'
p3622
I00
sS'ltl(zbum)rani'
p3623
I01
sS'hsy((sqrqz(hxepsfcmrw))pl'
p3624
I00
sS'd(d)dw)s'
p3625
I00
sS'ke(per(ljoqprtfdcvo))l)xjqfleb'
p3626
I00
sS'qjr(()hufi'
p3627
I00
sS'njfs((w'
p3628
I00
sS'((c)(((zzgz)a)ngm)gthcyuj'
p3629
I00
sS'(qnf)g)pm'
p3630
I00
sS'k((e(dsdrdv)'
p3631
I00
sS'(oly)z'
p3632
I01
sS'vk(m()bov)gtt'
p3633
I01
sS'jyvhr'
p3634
I01
sS'ir)qnzp'
p3635
I00
sS'ywqwwictf(tvyhp'
p3636
I00
sS'(kmq((r(k)jfx))'
p3637
I00
sS'(evxm(a(())))vt'
p3638
I01
sS'e(e)ui'
p3639
I01
sS'bd'
p3640
I01
sS'be'
p3641
I01
sS'bf'
p3642
I01
sS'bg'
p3643
I01
sS'ahm(ywh(())u)'
p3644
I01
sS'ba'
p3645
I01
sS'bb'
p3646
I01
sS'bc'
p3647
I01
sS'(ou)f'
p3648
I01
sS'bn'
p3649
I01
sS'bo'
p3650
I01
sS'bh'
p3651
I01
sS'bj'
p3652
I01
sS'bk'
p3653
I01
sS'bt'
p3654
I01
sS'bw'
p3655
I01
sS'bp'
p3656
I01
sS'bq'
p3657
I01
sS'zzbokjyodf)'
p3658
I00
sS'bs'
p3659
I01
sS'bx'
p3660
I01
sS'by'
p3661
I01
sS'bz'
p3662
I01
sS')mif'
p3663
I00
sS'qtfgvh(zdu'
p3664
I00
sS'p()rq'
p3665
I01
sS'k((p(k)ppu))'
p3666
I01
sS'uarw'
p3667
I01
sS'()p(v(ob(adb)amdwej)vung)'
p3668
I01
sS'faptxv'
p3669
I01
sS'q(nbvjf)nav'
p3670
I01
sS'hqecojxmozpsnyifwfvzjqgos'
p3671
I01
sS'(yau(po(kpadcskuw)je)gi)v'
p3672
I01
sS'ktbt(((emyymgg(uvclsc)se)sxpoh'
p3673
I00
sS'ha()qv)lk)p'
p3674
I00
sS'rki('
p3675
I00
sS'wxkafsm(c())idftublvogmcn'
p3676
I01
sS'zvvfkceletpdkbi'
p3677
I01
sS'zos)tt)(xo)ir)'
p3678
I00
sS'u((ywh(sbxt)))uglvxrg)tmdxtbvf'
p3679
I00
sS'nusvm((accloyqgh)ifgwpamk'
p3680
I00
sS'f((()pdxht)i'
p3681
I00
sS')oonde'
p3682
I00
sS'(z(d((vmqli)evmxx(xw))nmq'
p3683
I00
sS'ei(((wryn)lpele'
p3684
I00
sS'(qa(ion))u)mow'
p3685
I00
sS'ii)xm'
p3686
I00
sS'nlyna'
p3687
I01
sS'msykpzripbk)'
p3688
I00
sS'(v)vv'
p3689
I01
sS'ikdri(cjihsfohwq))pidbgof'
p3690
I00
sS'k(('
p3691
I00
sS'afy(uldf()cdk)w'
p3692
I01
sS'hyvbqswf'
p3693
I01
sS'(czrgwp(()qx)qpbz)pj'
p3694
I01
sS'mtb(ff)fq)(ya)'
p3695
I00
sS'sd)'
p3696
I00
sS'(ibaaaoci'
p3697
I00
sS'(((ab()(zeohnxofqgss)x)hl)d)bx'
p3698
I01
sS'd)l'
p3699
I00
sS'xdddd)u'
p3700
I00
sS'ws(i((b(twzuzxgy))y)uunv)rcmct'
p3701
I01
sS'd)i'
p3702
I00
sS'vycia(nk(cqjczop)hhkxkcsywmq)m'
p3703
I01
sS'bioe'
p3704
I01
sS'((qrkshexmltj)g'
p3705
I00
sS'(n(((gq)vjvesnqreuqqqnc)uulssh'
p3706
I00
sS'd)f'
p3707
I00
sS'(z)vrd'
p3708
I01
sS'c(m(duljh)xergvtdxd)emlji'
p3709
I01
sS'd)b'
p3710
I00
sS'ttj(p'
p3711
I00
sS'(k(per))a'
p3712
I01
sS'())(fuk)'
p3713
I00
sS'ttl((rqo(q)avowlqowj)rgqygj)li'
p3714
I01
sS'u)'
p3715
I00
sS'(bbw)'
p3716
I01
sS'fzm'
p3717
I01
sS'j(y'
p3718
I00
sS'fza'
p3719
I01
sS're)((fsjsg)'
p3720
I00
sS'v(xr()gdjsedvpr)lditeqgra'
p3721
I01
sS'rqo(k)sclc'
p3722
I01
sS'dwpe'
p3723
I01
sS'byhpqw'
p3724
I01
sS'(tirbxpl)yq'
p3725
I01
sS'(z((xyindgg)tgn)elb)'
p3726
I01
sS'q)c'
p3727
I00
sS'hehpsu'
p3728
I01
sS'()kht'
p3729
I01
sS'k(k'
p3730
I00
sS'e((()jq'
p3731
I00
sS'((((wzf)eus))'
p3732
I00
sS'a()j(xu(n(mieuqxd)g)q)bfc'
p3733
I01
sS'v)zxe'
p3734
I00
sS'(()uwcq'
p3735
I00
sS'wnvpymt)hq()'
p3736
I00
sS'o(()qqkcngjje'
p3737
I00
sS'bjltn(e'
p3738
I00
sS'i(xucwwzqdtdk'
p3739
I00
sS'gi((r'
p3740
I00
sS'uy'
p3741
I01
sS'hq()x(mduhxk)u'
p3742
I01
sS'ut'
p3743
I01
sS'b(m(zckdp)'
p3744
I00
sS'egjafphtyoww)we'
p3745
I00
sS'(f((dlox))zfpvdul)l)))zkg'
p3746
I00
sS'up'
p3747
I01
sS'(uf)'
p3748
I01
sS'tw(y(((fcubbw)cm)ktqfpxajqwg))'
p3749
I01
sS'jz(beo)cew'
p3750
I01
sS'(vx))'
p3751
I00
sS'uo'
p3752
I01
sS'e(s((qac)a))'
p3753
I01
sS'd(qy((((anfshj'
p3754
I00
sS'r(dwbosgbtwbb))vrrxnnfxpqacwwv'
p3755
I00
sS'eiaohyh(q(fzwkeq)e)zloji)'
p3756
I00
sS'(blzpttfhgoi))'
p3757
I00
sS'z'
p3758
I01
sS'fv(xty(zvydbg)zmvyu)'
p3759
I01
sS'hjnk(op)k'
p3760
I01
sS'e(ufy((iladdfmlv))xxxulnstkglk'
p3761
I00
sS'u(pdhhq'
p3762
I00
sS'h((daawh)urjcba)ccea'
p3763
I01
sS'urjjf(t(zxo))x'
p3764
I01
sS'(m)ebzgyhuevd'
p3765
I01
sS'e((f()o(x)l)'
p3766
I00
sS'byaw(umxh)'
p3767
I01
sS'rbcrnn(cqwg(kilp)net'
p3768
I00
sS'az(haqyn(v'
p3769
I00
sS'xykzo(zoicvxitxntn)p'
p3770
I01
sS'((k'
p3771
I00
sS'(nrzxeef'
p3772
I00
sS'll(ixfsussbo))z'
p3773
I00
sS'iell)qw'
p3774
I00
sS'ujgv'
p3775
I01
sS'n()grldjey)l'
p3776
I00
sS'bpgeggm(((oj())hivty'
p3777
I00
sS'quh(b)'
p3778
I01
sS'f(sq)vr'
p3779
I01
sS'kqw'
p3780
I01
sS'te()qyn()b)t'
p3781
I00
sS'jrqybq'
p3782
I01
sS'(tzfshl'
p3783
I00
sS'(kgmietvk)ppjjp'
p3784
I01
sS'(knrd)'
p3785
I01
sS'us(ugzfvmi)yyhm'
p3786
I01
sS'uqzaohcjejx)'
p3787
I00
sS'(bl(byyw'
p3788
I00
sS'rzzfb'
p3789
I01
sS'vqe(odwnp))an'
p3790
I00
sS'xx)hvwlfobza'
p3791
I00
sS'sumvyt)fdsgob'
p3792
I00
sS'(s()tgz)(qu)sg'
p3793
I01
sS'qdrnz'
p3794
I01
sS'(xkganvn'
p3795
I00
sS'y(l(vipflqf))'
p3796
I01
sS'ly(pirhowodqkaynlo)nursjc'
p3797
I01
sS'iflydddj(dsz)bndpnliyvcvyyevwt'
p3798
I01
sS'((n(((b)dv)iijlwcps)ya)tvup)mo'
p3799
I01
sS'rgge(()axm)d'
p3800
I01
sS'((oqffye'
p3801
I00
sS'st(w()rv))s'
p3802
I00
sS'rg()((ugwzj)ykss)yas'
p3803
I01
sS'mvy(p)al(mmeo'
p3804
I00
sS'wxc()qdddwcr)'
p3805
I00
sS'uivsahqok)spa'
p3806
I00
sS'r((u)(uuiwxt)pa)skij'
p3807
I01
sS'ljr(yktmvtz)d'
p3808
I01
sS'rzypi((txfldblh))gnh'
p3809
I01
sS'(yqbjjvql'
p3810
I00
sS'(kpvz)'
p3811
I01
sS'(l()(ng(((jghj)eegc)c))ujjrrp('
p3812
I00
sS'pje)wwwy'
p3813
I00
sS'xbznf'
p3814
I01
sS'iwiq)j()tmk'
p3815
I00
sS'ne(d(s(m)ckb)zbnaqzvd)iqu'
p3816
I01
sS'ute(g)u(yfbpgng)dmfa)sqmc'
p3817
I00
sS'e'
p3818
I01
sS'etgllhdtuuzra('
p3819
I00
sS'p(nasi(rlqp)x'
p3820
I00
sS'ad(ipzudop(tmmb'
p3821
I00
sS'(d)u'
p3822
I01
sS'brmgjgxlddhq)q'
p3823
I00
sS'o(((d()bcv)ksbmd)dxtwxuc)'
p3824
I01
sS'ugtwt()jxacozz'
p3825
I01
sS'()()md'
p3826
I01
sS'nskg)aohig'
p3827
I00
sS'(wygairzeullbczuovpqvufbzz)noj'
p3828
I01
sS'((xwxgw)poydsx'
p3829
I00
sS'bqcrqi()mf'
p3830
I01
sS'niqu'
p3831
I01
sS'yzvyym'
p3832
I01
sS'j(s)ho'
p3833
I01
sS'qdgysky'
p3834
I01
sS'tq(y)uoglb('
p3835
I00
sS'((h(jb(pm(ftiu))t))fnsx)x'
p3836
I01
sS'(d(x))rvvoj'
p3837
I01
sS'qwumwb'
p3838
I01
sS'duna(dsm)kddk'
p3839
I01
sS'yrwbslt(()s'
p3840
I00
sS'aloklsnu'
p3841
I01
sS'erq(cuytm)))o'
p3842
I00
sS'hwf)'
p3843
I00
sS'n(qi)qdlqw)cf'
p3844
I00
sS'())(r)oz(sgt)cf'
p3845
I00
sS'fx(ddt'
p3846
I00
sS'xt(a'
p3847
I00
sS'gd'
p3848
I01
sS'sjugu)(a)'
p3849
I00
sS'dhz)q'
p3850
I00
sS'unxbmwhvm(r)a'
p3851
I01
sS't)bh(diaj'
p3852
I00
sS'm(ir'
p3853
I00
sS'vk(gds'
p3854
I00
sS'qakdmtxsy(pisicdbqp)vmgin'
p3855
I01
sS'tdovhczr)fek'
p3856
I00
sS'vhzc)'
p3857
I00
sS'eezm(z)zzglzs'
p3858
I01
sS'q(os)((()vkkhnsjo)tp'
p3859
I00
sS'qd(b(oigbst)sudb))jh'
p3860
I00
sS'nljgn'
p3861
I01
sS'ff(tly(a)hgie'
p3862
I00
sS'rim((pbbkuocvesuy)j)weux)'
p3863
I00
sS'()s(t(v(arlm)ns))ifx'
p3864
I01
sS'ojlf((d)ccl)'
p3865
I01
sS'cn()(blgnbul)'
p3866
I01
sS'ifo(uax))'
p3867
I00
sS'xmes()(cut))jxefjt((codqppvfnn'
p3868
I00
sS'n(b(estzysx)jkncdooohjuaasijqu'
p3869
I00
sS'uz(r)mfr)i'
p3870
I00
sS'sy(((((i)n)dw)o)yf)a'
p3871
I01
sS'q(ie)(elao)itwu'
p3872
I01
sS'(w(caml(aa))ts'
p3873
I00
sS'zs(ts()f(bjs)iq'
p3874
I00
sS'(bsak(ewmk)ejl'
p3875
I00
sS'(k(fk(iy)rao)u'
p3876
I00
sS'(q))m)'
p3877
I00
sS'vw(kdgz)ymgqqrpwjbqmvosma'
p3878
I01
sS'hqd(sxm(bsbsxl))itsq'
p3879
I01
sS'g))'
p3880
I00
sS'c(rb)'
p3881
I01
sS'qrofb)'
p3882
I00
sS'l()rue(q(jlwccavtwhe'
p3883
I00
sS'xxwwbrtg(medgwdwbdeh'
p3884
I00
sS'lrws'
p3885
I01
sS'ruflw((mcachl'
p3886
I00
sS'(z(((rvfj)x)q)j)qad)'
p3887
I00
sS'((ryofjcuk'
p3888
I00
sS'nzlia)'
p3889
I00
sS'(bf(((())j'
p3890
I00
sS'lrwt'
p3891
I01
sS'bodzjvu)gean'
p3892
I00
sS'(zexm)sg'
p3893
I01
sS't(ikt(gk)gre)'
p3894
I01
sS'((xfppjantt)ww'
p3895
I00
sS'rnorafrqawj'
p3896
I01
sS'a(z'
p3897
I00
sS'eecpnvlzc'
p3898
I01
sS'ogkttxqpajca)'
p3899
I00
sS'g)'
p3900
I00
sS'g('
p3901
I00
sS'fpitjpteg('
p3902
I00
sS'diyoe()txieadpg'
p3903
I01
sS'(vnccnoyqbk'
p3904
I00
sS'pxdlvrfoobstx'
p3905
I01
sS'(sj(((ock)))'
p3906
I00
sS'j(gku((wr)aoewidln)mwefol'
p3907
I00
sS'ienif(qflg'
p3908
I00
sS'ogfa'
p3909
I01
sS'zc(w(m()mvtcqziemjjjf)ycg)fyd)'
p3910
I00
sS'j()(o)()'
p3911
I01
sS'qzkoik'
p3912
I01
sS'ugx'
p3913
I01
sS'xlvqsunqj)'
p3914
I00
sS'cbephx)skv'
p3915
I00
sS'p(tkj(w))bfe'
p3916
I01
sS'(fhx((qw((gkizkx)lxf)ww)))zz)q'
p3917
I00
sS'((k(wawj)lkzmol)fribat)pj'
p3918
I01
sS'bz)f(masq)c'
p3919
I00
sS'z(mikzi)vym'
p3920
I01
sS'zqhei'
p3921
I01
sS'(b(wahdq)'
p3922
I00
sS'i(is'
p3923
I00
sS'v(rfk)'
p3924
I01
sS'yy(((q))yhh'
p3925
I00
sS'y(g((((tc)nnijvw))clo)qaw'
p3926
I00
sS'orphjvpz((yaepf)gd)e'
p3927
I01
sS'v(w)przcymxj'
p3928
I01
sS'sofl()iu(piil)q'
p3929
I01
sS'hk)'
p3930
I00
sS'zmn)u(wj)bpymm'
p3931
I00
sS'bacctnu((g)vjoilld))'
p3932
I00
sS'dtgsh'
p3933
I01
sS'fu(dcuo'
p3934
I00
sS'iv)u'
p3935
I00
sS'm((h(dilex))'
p3936
I00
sS'xbf(nez(c))n'
p3937
I01
sS'd(j)dl(wfapr)'
p3938
I01
sS'ik(w)dhvuac)tb'
p3939
I00
sS'kiwlylb(hyk)p)e'
p3940
I00
sS't(rk)nexphrxrad)mggq'
p3941
I00
sS'c)euy(wh)'
p3942
I00
sS'(alnt(cxqbstdw)vghxijcvdrbgw)o'
p3943
I01
sS'nc)cwslc'
p3944
I00
sS'oa(b)(ifv(s)tid'
p3945
I00
sS'yck'
p3946
I01
sS'(ccuvg)n)oos'
p3947
I00
sS'(qa(ion)z)mxw'
p3948
I01
sS'ttfe((p(p)d)qcecthqy'
p3949
I00
sS'(bu(crm'
p3950
I00
sS'onlm(mgdcwnt'
p3951
I00
sS'ttuxggpcy)qlduz'
p3952
I00
sS'b(um)kbuaneu'
p3953
I01
sS'((jrtwkj)yk)xf'
p3954
I01
sS'mjfb)ei'
p3955
I00
sS'(ag(k())yqp'
p3956
I00
sS'vfbymt(utqn)zv'
p3957
I01
sS'il((c))wdjfpfu'
p3958
I01
sS'q(uc(xoc(vxgrvv)mlsiuqc))cnrlk'
p3959
I01
sS'tybg'
p3960
I01
sS'((((w(((geq))))emsx))l)aa'
p3961
I01
sS'admd'
p3962
I01
sS'yn))wlsx'
p3963
I00
sS'm(q)na'
p3964
I01
sS'ra()ckjsisyg'
p3965
I01
sS'hra(((s((mn)nqwtvuu)mfo)aay)fk'
p3966
I00
sS't(cg)h)c'
p3967
I00
sS'mxl(rtqnujxh'
p3968
I00
sS'y(hssl'
p3969
I00
sS'm(gtw(hh(u)yg)sbkdt)col)a'
p3970
I00
sS'ryezdcyp(xdxu)rwwswy'
p3971
I01
sS'e(wsc'
p3972
I00
sS'h(vnc(ge()gdh'
p3973
I00
sS'gfd(twq)mrixz'
p3974
I01
sS'w(az)r())tna'
p3975
I00
sS'(t()ed(cstr)ypsrzclucioa)'
p3976
I01
sS'(ihhp'
p3977
I00
sS')nlb'
p3978
I00
sS'(llwhheha(hnxvphmdxftzyg)nddni'
p3979
I00
sS'dsop'
p3980
I01
sS'yvfns(rrxok)g'
p3981
I01
sS't)y'
p3982
I00
sS'sd(cyrmqwvf'
p3983
I00
sS'(uy()mahtko'
p3984
I00
sS'h(uhhaluehfh)'
p3985
I01
sS'htq(ra(i(lmkxrt))lwrbs)ik'
p3986
I01
sS'bt()et(vbu)t'
p3987
I01
sS'kb)cppjj'
p3988
I00
sS'((nl(xdnrpddd)oomvqdpcb)b'
p3989
I00
sS'lqzmjfuo(b)'
p3990
I01
sS't)k'
p3991
I00
sS'yxymzovml)iqs'
p3992
I00
sS'((dssa'
p3993
I00
sS'wizoamhc(gb)kq'
p3994
I01
sS'kylrflb)'
p3995
I00
sS'unaa(dsm))kdddk'
p3996
I00
sS'a(wpr(h(ce)))z'
p3997
I01
sS'q(q'
p3998
I00
sS'q(v'
p3999
I00
sS'(((y(j(f)zypvppyyt)jj)ne)pn)))'
p4000
I00
sS'i(v(dkvfguhcuz)yymvbgvx)l'
p4001
I01
sS'(jo(odm(hn))f)'
p4002
I01
sS'bxpkj(j(zdt)'
p4003
I00
sS'b(cwnrhg'
p4004
I00
sS't((((ar'
p4005
I00
sS'eni(uj(ju)'
p4006
I00
sS'dbsfpx(()h)hpio'
p4007
I01
sS'(mm'
p4008
I00
sS'vscezivx(ncf)ovoysro'
p4009
I01
sS'q(f'
p4010
I00
sS'us()pmf)jd'
p4011
I00
sS'hh(gf)x(stk)'
p4012
I01
sS'((v(vtmrpq)kgbak)b)mhiftv'
p4013
I01
sS'ajjnrdwega)s'
p4014
I00
sS't(uv(oriutjzyjmuoq)tno)pm'
p4015
I01
sS'hcykac(luj'
p4016
I00
sS'andlq'
p4017
I01
sS'kxif'
p4018
I01
sS'(j(edeh'
p4019
I00
sS'exju)bya'
p4020
I00
sS'gywzn(((fh))n)popauyxausy'
p4021
I01
sS'xxba(((z()))gosrusqydjuvodila)'
p4022
I01
sS'gg()ccroq(yj))'
p4023
I00
sS'scckptb(v'
p4024
I00
sS'ju((ik())zg)hn'
p4025
I01
sS'hoqvyzf(jvypcm)jmffixpqeq'
p4026
I01
sS'jcxniaujxutzeak'
p4027
I01
sS')sdvv'
p4028
I00
sS'iuaw()(i)u)uq'
p4029
I00
sS'(dq))'
p4030
I00
sS'))ykh'
p4031
I00
sS'rce()))j'
p4032
I00
sS'umlv((rrudjl)))'
p4033
I00
sS's(jd)goobb(k)cslpluqnblpdr)))p'
p4034
I00
sS'vwjdmf)jj'
p4035
I00
sS'mjowo'
p4036
I01
sS'cnbvje)w'
p4037
I00
sS'ttkkqqhngwdd)))'
p4038
I00
sS'(hx(zxm)nq'
p4039
I00
sS'g))(jv))'
p4040
I00
sS'oo(((gfld)m)bb'
p4041
I00
sS'z(muik((uqibucvkb))ozdi)q'
p4042
I01
sS'mvjsdmfhxxdfv'
p4043
I01
sS'ls)n'
p4044
I00
sS'vk(g)'
p4045
I01
sS'(f)f(txprq(xn)'
p4046
I00
sS'ov(((((yuekh))v'
p4047
I00
sS'zzn((tj)tjvwnt'
p4048
I00
sS'(htmc(mfi)o)djs'
p4049
I01
sS'((b(bbn(gb))b)pqkrab)sthxeaoed'
p4050
I01
sS'pwqyamo)'
p4051
I00
sS'((f)d'
p4052
I00
sS'xvxc('
p4053
I00
sS'(klrr)d(dxyn'
p4054
I00
sS'()((n(g()))emldj)xsthsjix'
p4055
I01
sS'f'
p4056
I01
sS'(l)dy'
p4057
I01
sS'(uu((a)qd(ojwgsii)vpv)e)fnl)jw'
p4058
I00
sS'xlcy'
p4059
I01
sS'(jovvc))m'
p4060
I00
sS'im(by(zyei)oh)'
p4061
I01
sS'mk(txzgem)wew'
p4062
I01
sS'bxqqq)a'
p4063
I00
sS'nv()'
p4064
I01
sS')qqvcrt'
p4065
I00
sS'(yflyn((nnrayunenubh)owq)'
p4066
I00
sS'gea(b(arv())vsrlueibiilealeow)'
p4067
I01
sS'h(()uzfhvf)rbtu'
p4068
I01
sS'xcb'
p4069
I01
sS'l(a)'
p4070
I01
sS'w(i(nvjxfgbfpj'
p4071
I00
sS'xce'
p4072
I01
sS'ya((()jjbvix'
p4073
I00
sS'())()(y)gm'
p4074
I00
sS'(cbn()(fknu)m)'
p4075
I01
sS'mss(pcs'
p4076
I00
sS'(((ssbd'
p4077
I00
sS'xprx(q(lff)tujl)iuww'
p4078
I01
sS'gr((a((wcpv)to)gq))updkcfqfpuu'
p4079
I01
sS'r(dwb(snbtb))vrxnnfxpacwv'
p4080
I01
sS'(b)vabgqigev'
p4081
I01
sS'(en(ec)j)wzwcy'
p4082
I01
sS'kkyqrr)iqa'
p4083
I00
sS'q(xr)'
p4084
I01
sS'gtck(e))'
p4085
I00
sS'ewghl(yijc)q'
p4086
I01
sS'o(qkx)zbgxmcz'
p4087
I01
sS'ei()bguovlzjgkmpewlokdmiv'
p4088
I01
sS'((j)(l)nkhdwg'
p4089
I00
sS'gulbi'
p4090
I01
sS'(ndi(x)))i'
p4091
I00
sS'x)koa'
p4092
I00
sS'fdph(a)dr'
p4093
I01
sS'bbo(qad'
p4094
I00
sS'nxa)(a)(drtpry)vcckg'
p4095
I00
sS'c(ghn'
p4096
I00
sS'()e(aawi'
p4097
I00
sS'r()oba'
p4098
I01
sS'a(((l)fm)nweo)i'
p4099
I01
sS'czr)r'
p4100
I00
sS'(((((opzv(s)b)zczebcu)h)ap))sc'
p4101
I01
sS'(f)ur'
p4102
I01
sS'i()((q)ap'
p4103
I00
sS'azal((c))kigrbk'
p4104
I01
sS'(())cxk'
p4105
I01
sS'z(fulijhaxxn)oj'
p4106
I01
sS'((a)fhmeej'
p4107
I00
sS'fqd(t'
p4108
I00
sS'lyjbiihgw'
p4109
I01
sS'clussssjclna((((ou)peaaattywx)'
p4110
I00
sS'b(n(fayo)vuad)c'
p4111
I01
sS'bndq'
p4112
I01
sS'ckn(k()hwppc)m'
p4113
I01
sS'eayw)'
p4114
I00
sS'(wq)t(tan)tsd'
p4115
I01
sS'mfmg'
p4116
I01
sS'((y(o(l)(ggm)wxetvbt)ec))'
p4117
I01
sS'znw()'
p4118
I01
sS'lwyoum)xz'
p4119
I00
sS'zcqwpkmpowuno'
p4120
I01
sS'b()igac'
p4121
I01
sS'm((erqqnpw)eq'
p4122
I00
sS'l(((uxf)sblcq)'
p4123
I00
sS'qtekhkslyiufj'
p4124
I01
sS'm(((shz(a)sbgxdnwh)ctdek)'
p4125
I00
sS'ckicu())riwdd'
p4126
I00
sS'b(vsrt)v(hwmmlugzfnyunk)n'
p4127
I01
sS')vht'
p4128
I00
sS'l(au'
p4129
I00
sS'am()yk()nxuh'
p4130
I01
sS'j)d'
p4131
I00
sS'zchiff(k)ou))yq'
p4132
I00
sS'dmdql'
p4133
I01
sS'q((o)ngtey))aa'
p4134
I00
sS'b(j)'
p4135
I01
sS')scjz'
p4136
I00
sS'kzdvq'
p4137
I01
sS'((y(o(l)ybgmy))czwxetvbt)ec)q)'
p4138
I00
sS'((zle)'
p4139
I00
sS'mjs'
p4140
I01
sS')khfw'
p4141
I00
sS'v)fhqli'
p4142
I00
sS'()(b)cmvyawiiowjilewezqfrpjlqx'
p4143
I01
sS'(otj'
p4144
I00
sS'g(()l'
p4145
I00
sS'i)msbi)'
p4146
I00
sS'bt()et((vbu)t'
p4147
I00
sS'wpw(p(uat)rde))ywyde'
p4148
I00
sS'ebzboouwmxbd'
p4149
I01
sS'rxbymghztmhw'
p4150
I01
sS'yfu(vinuebk)t'
p4151
I01
sS's(ljgxhua)yau'
p4152
I01
sS'pte((wqbr)b))'
p4153
I00
sS'oo(g(d'
p4154
I00
sS'lsn((pjgyhoqvsh)ewgbilm)b'
p4155
I01
sS'pxmj'
p4156
I01
sS'(h)zk'
p4157
I01
sS'vp(zq(s))nr)'
p4158
I00
sS'qhzbiyngxpabdd'
p4159
I01
sS'(((f)og)lfaqhd'
p4160
I00
sS'()ek(e'
p4161
I00
sS'lywf)'
p4162
I00
sS'he)zymyi'
p4163
I00
sS'lb(sla))tsb'
p4164
I00
sS'g(r'
p4165
I00
sS'euj'
p4166
I01
sS'djjaargwo(ssa)riqvvmddr)eeezcq'
p4167
I00
sS'fxsoxyrnbodkbmwwz(vbvfpirbocpx'
p4168
I00
sS'(qw(dd)h))v'
p4169
I00
sS'vrogllh())qqk'
p4170
I00
sS'ji(b(utoee)qzdeojlmn)kg)a'
p4171
I00
sS'e((t(()vg))sm'
p4172
I00
sS'((o))'
p4173
I01
sS'gvxf'
p4174
I01
sS'nqymbi((ud))'
p4175
I01
sS'nbxjtum)z'
p4176
I00
sS'(()gew))'
p4177
I00
sS'tsx'
p4178
I01
sS'j(lmk))'
p4179
I00
sS'yrxvp'
p4180
I01
sS'g(m'
p4181
I00
sS'(sahrscoudy)a'
p4182
I01
sS')wubfdxhdfwqxzmabtl)njnwrjgvvh'
p4183
I00
sS'zbp(qqqx))'
p4184
I00
sS'tcy()'
p4185
I01
sS'()bv'
p4186
I01
sS'sika(mstgfwrqsfp)qzfxpbhhwhaic'
p4187
I01
sS'ilqxskdfxytyc)t'
p4188
I00
sS'()bs'
p4189
I01
sS'wtj(((tyhnpdpoar)uxq'
p4190
I00
sS'jqr(uv)((vvcd)))vuhxedxxf'
p4191
I00
sS'y(mcu))'
p4192
I00
sS'o(mt)pjb'
p4193
I01
sS'()bf'
p4194
I01
sS'gy(ip'
p4195
I00
sS'()bd'
p4196
I01
sS'fytn'
p4197
I01
sS'jc(vr'
p4198
I00
sS'hsrpwrfefqkeku'
p4199
I01
sS'j(jajblubtla'
p4200
I00
sS'()bk'
p4201
I01
sS')ao(bhtc)agauxk'
p4202
I00
sS'ck((aarb((be)g)uekhcz)pcox)gaq'
p4203
I01
sS'z(jec(mn)ea()'
p4204
I00
sS'xyt(epc)mjytxs'
p4205
I01
sS'wkwv'
p4206
I01
sS'()q((((h'
p4207
I00
sS'swktx)z'
p4208
I00
sS'isk)(l(makltzrypdyaatldolyqszp'
p4209
I00
sS'pft))ruu'
p4210
I00
sS'ccffba((xk))xr)'
p4211
I00
sS'((wfw(c(l)ogxnl)ie)qhkpma'
p4212
I00
sS'(vrbus(a(a)udr)'
p4213
I00
sS'l('
p4214
I00
sS'l)'
p4215
I00
sS'ywwb()je(um(lyhwjngfpb)eo'
p4216
I00
sS'(ksr'
p4217
I00
sS'zov)'
p4218
I00
sS'ehqp(o)i)knl'
p4219
I00
sS'eh())'
p4220
I00
sS'f(yy)'
p4221
I01
sS'zgsgo)'
p4222
I00
sS'(nwsc()afgs)'
p4223
I01
sS'jetqc'
p4224
I01
sS'((pg'
p4225
I00
sS'(fkuv'
p4226
I00
sS'hl((syfyh)'
p4227
I00
sS'((ey()))ozmrm'
p4228
I01
sS'(vcgmrum))r'
p4229
I00
sS'v))p)nmq'
p4230
I00
sS'n)bh'
p4231
I00
sS'ukzgjo(vv()i)lgdudniikegnyhpis'
p4232
I01
sS'lbqoh)tlii'
p4233
I00
sS'g((ih)'
p4234
I00
sS'lfrrrmtepwkycuuc)mczxxpsj'
p4235
I00
sS'mjs(sr(tiuucqpk)aych'
p4236
I00
sS'e(m)'
p4237
I01
sS'p(aby'
p4238
I00
sS'hf'
p4239
I01
sS'twj(g(()(x)sxgkieki)gwh)h'
p4240
I01
sS'jpxmkasxqc'
p4241
I01
sS'rre((yxhz'
p4242
I00
sS'dexsg((mxp)ybams(eyk'
p4243
I00
sS'gnf)xp(ljozja)s'
p4244
I00
sS'parpfcl)'
p4245
I00
sS'(vo'
p4246
I00
sS'f)lls'
p4247
I00
sS'(('
p4248
I00
sS'y(iao'
p4249
I00
sS'p((n'
p4250
I00
sS'(cscimyiiyy))'
p4251
I00
sS'mhyvm)zg)tn'
p4252
I00
sS'(xdrja'
p4253
I00
sS'cd()hvo(yex'
p4254
I00
sS'etm)i'
p4255
I00
sS'h(aedbp'
p4256
I00
sS'il(ov(b(()nqzbqga)qmmohm)hw)om'
p4257
I01
sS'f(uzxx'
p4258
I00
sS'((g(ndvgtf))q'
p4259
I00
sS'(ga(ioo((oxwymsqucn)euk)zydkek'
p4260
I00
sS'fl(fb)un)'
p4261
I00
sS'pjsijostiai)'
p4262
I00
sS'netvk((tjugtv)uztatfatpi)'
p4263
I01
sS'nsecippte((utrswr)cphjpq)gpsif'
p4264
I01
sS'bwy'
p4265
I01
sS'(x)u'
p4266
I01
sS'(x)t'
p4267
I01
sS'(x)s'
p4268
I01
sS'(khzjzr'
p4269
I00
sS'tgc()bde(qlpa)rhc)ue'
p4270
I00
sS'(x)o'
p4271
I01
sS'jxfj(bu((aip)k)duatjgwpgdgccek'
p4272
I00
sS'fgyjr)c()(tkar)'
p4273
I00
sS'ak)rq'
p4274
I00
sS'ct(iig'
p4275
I00
sS'qun'
p4276
I01
sS'bzrnzr)duiia'
p4277
I00
sS'eng((v)lmgcatgjkikx)ederd'
p4278
I01
sS'cefbxddhg))'
p4279
I00
sS'ser(y)hw'
p4280
I01
sS'()((lsjeea)a)i'
p4281
I01
sS'g'
p4282
I01
sS'y)l'
p4283
I00
sS'wv(k(mjrg(xgldxj)h)xayyn)'
p4284
I01
sS'y)n'
p4285
I00
sS'ccuh'
p4286
I01
sS'jswvg'
p4287
I01
sS'r(ke(ez(wjgdposnm)cxugn))mqrsm'
p4288
I01
sS'npo))ky'
p4289
I00
sS'dyaa(ui)bcafoj'
p4290
I01
sS'rw(o(yg)a)lkpnf'
p4291
I01
sS')sssqii(ztns'
p4292
I00
sS'((l)'
p4293
I00
sS'ju)fdqsa'
p4294
I00
sS'yfu(vinueb(v)t'
p4295
I00
sS'czwkzqb((nwcuga'
p4296
I00
sS'((j))ggf)p(tthhttifq'
p4297
I00
sS'embtwxkeivusx)z'
p4298
I00
sS'mwv(((v(()bxc)))i)ueigqjy'
p4299
I01
sS'(jiwpdj'
p4300
I00
sS'hu)zhmgexn'
p4301
I00
sS'()zlq(mu)y'
p4302
I01
sS'q(q(tirdm)uaxfb'
p4303
I00
sS'c(fb(xjhg))ey'
p4304
I01
sS'sj((aea(iwolpulq)ft)'
p4305
I00
sS'qm(v))'
p4306
I00
sS'fvrpzggy(n)jc'
p4307
I01
sS'bap((f'
p4308
I00
sS'neujfn)'
p4309
I00
sS'((((df)iq)pqynfarqjr'
p4310
I00
sS'ibso(ravcb)xg'
p4311
I01
sS'(ki(chddma)j'
p4312
I00
sS'o(orca)j)di'
p4313
I00
sS'()rbs)'
p4314
I00
sS'(zufohyikhrsu'
p4315
I00
sS'ywbza)akvvwegbi'
p4316
I00
sS'((aic(z)'
p4317
I00
sS'qhcxxtcfgft)'
p4318
I00
sS'((((yph)wqlijkjno)ed)w)dc'
p4319
I01
sS'a(hrcp)'
p4320
I01
sS'kuxry'
p4321
I01
sS'bfsl'
p4322
I01
sS'qzxty)jannaj'
p4323
I00
sS'yltzcamg((gl)flw))fe'
p4324
I00
sS'(yb)yko'
p4325
I01
sS'((ndr()g)hc)xqt'
p4326
I01
sS'w()onjr(fhmnuqpqkh)vgjfjz'
p4327
I01
sS'(xxai'
p4328
I00
sS'yrzdgatqibamhzr'
p4329
I01
sS'vh)'
p4330
I00
sS'((q(kjxclicpe)nek)f)x)nt)obppp'
p4331
I00
sS'(b)ne)eqwk'
p4332
I00
sS'(jd)fjyt(hqjjqxolmlen)wtrrqhsr'
p4333
I01
sS'((()kthq'
p4334
I00
sS'ck((b()tiij)lqm'
p4335
I00
sS')lgyhxmvq'
p4336
I00
sS'aclayqn)zyi'
p4337
I00
sS'q(e(tgbycn)f)'
p4338
I01
sS'n(ny(rl)j'
p4339
I00
sS'ravvxl((lwd)'
p4340
I00
sS'o(gkjujjvqvvdou'
p4341
I00
sS'((g(()y()))tnqrhgcs)llgpr'
p4342
I01
sS'yweuf'
p4343
I01
sS'hsqxkkx(lrzzjmmvvgvliixgwdaaaj'
p4344
I00
sS'(guj'
p4345
I00
sS'k(((lhw)ddkg)'
p4346
I00
sS'w('
p4347
I00
sS'uw(icokkw'
p4348
I00
sS'gyz(v'
p4349
I00
sS'ebe(jc((jof))cn'
p4350
I00
sS'g(((fm(vdkmx)m)mrl)v'
p4351
I00
sS'm(nw)(gwbz)ns'
p4352
I01
sS'nj(()hh'
p4353
I00
sS'w()()hy'
p4354
I01
sS'eb(ygtyrttd)gxo'
p4355
I01
sS'fcnm(()uoyavhazduxwg'
p4356
I00
sS'xqq((xl()s(b)z'
p4357
I00
sS'jv(z((hdh)'
p4358
I00
sS'luf((gf)khebv'
p4359
I00
sS'b)kk((())gta)'
p4360
I00
sS'(y(mrh)'
p4361
I00
sS'c((dxdttu)ttthr'
p4362
I00
sS'iii(dui(n)jtav(ufdw)'
p4363
I00
sS'f(nf)v'
p4364
I01
sS'kkmjs(h))z'
p4365
I00
sS'(((ec()gm)qskkk)xx))'
p4366
I00
sS'(v(aywt(f)hi)cdbtai)'
p4367
I01
sS'thim(c(cxjndvidvl)jcvaz)j'
p4368
I01
sS'fg)'
p4369
I00
sS')bzse'
p4370
I00
sS'xielqg(ji)k)j'
p4371
I00
sS'vs(aseh)ms)koh'
p4372
I00
sS'cce(hh'
p4373
I00
sS'(z)wf(w(bd)kl)u'
p4374
I01
sS'(zl((yrxj)cv)wgnpr)oxqgwwwyrlw'
p4375
I01
sS'epysobtq(wab)'
p4376
I01
sS'(g(kyowgqmhmm)gqbtueiaefipo)fd'
p4377
I01
sS'flttydxxt)'
p4378
I00
sS'edw((zoqyktutwiaxp)wnc)ky'
p4379
I01
sS'dktgolsesj)n'
p4380
I00
sS'r(b()htmm)w(k'
p4381
I00
sS'mx(whonh'
p4382
I00
sS'n()kvylqduyngb'
p4383
I01
sS'znw(rd'
p4384
I00
sS'()(((hl)b))gf'
p4385
I01
sS'mw()'
p4386
I01
sS'asyd((b))hchgwrdx)yy)dqmg'
p4387
I00
sS'wvs(ayr(rc)'
p4388
I00
sS'ilyqo'
p4389
I01
sS'q(ddlb(oatodf)xnuyoe'
p4390
I00
sS'((aqfjuze)wezb)'
p4391
I01
sS'(shu'
p4392
I00
sS'vooh)j'
p4393
I00
sS'ym(((ttqmbm)zzj)b)m)'
p4394
I00
sS'vss)'
p4395
I00
sS'sah((t(su)y)f)i'
p4396
I01
sS'oi(u(zu)mkk'
p4397
I00
sS'cn(((ggq)vjvesqreuqqnc)uuulssh'
p4398
I00
sS'cc(rb))'
p4399
I00
sS'fw()e'
p4400
I01
sS'((fd(i)v)vstqn'
p4401
I00
sS'(nw'
p4402
I00
sS'p(a)d'
p4403
I01
sS'mir'
p4404
I01
sS'n(ruo(jjlaeklkf)ajzltkl)a'
p4405
I01
sS'pybp'
p4406
I01
sS'g()(((hlyn))gf'
p4407
I00
sS't(jm(n)e)b'
p4408
I01
sS'(vu((fhccg)kb)'
p4409
I00
sS'dkig(l)(ykaoqttetccqmh))k'
p4410
I00
sS'fc)edo'
p4411
I00
sS'rstliqu)w'
p4412
I00
sS'(n(((zcyfzepazraieseeumt))b)tn'
p4413
I00
sS'(nmmdvvffvqqv'
p4414
I00
sS'rfrwjdh'
p4415
I01
sS'elice(((a)xzeyslcomi)e)pr'
p4416
I01
sS'w((mjtb)(x(lkfks))pzzaxdvrnwle'
p4417
I00
sS'zqjw'
p4418
I01
sS'sfi'
p4419
I01
sS'ai()r())llnde'
p4420
I00
sS'bw)cit(eow)kllkfaktx'
p4421
I00
sS'hqim)'
p4422
I00
sS'ymrg(tsqava)'
p4423
I01
sS'(re)kz)e(s)bf'
p4424
I00
sS'h()l'
p4425
I01
sS'h()k'
p4426
I01
sS'((o)jjy'
p4427
I00
sS'(fdq()'
p4428
I00
sS'jjnuua(nqtwjfgq)ibww'
p4429
I01
sS'h()b'
p4430
I01
sS'(iiirhxvudn'
p4431
I00
sS')mko(v)'
p4432
I00
sS'usmborivvg)h(ee)etdm'
p4433
I00
sS'f(yo'
p4434
I00
sS'utlw'
p4435
I01
sS'yr(va'
p4436
I00
sS'h()u'
p4437
I01
sS'mj((i(h()bse)awp)i)z'
p4438
I01
sS'qkkncwhhhclle)m'
p4439
I00
sS'ouqkalmyy(cbb))'
p4440
I00
sS'sskz((stby))zfh'
p4441
I01
sS'yp()'
p4442
I01
sS'wtl(ym)n)dnd'
p4443
I00
sS'hno))ge'
p4444
I00
sS'ptixxr)yd'
p4445
I00
sS'fwvs()'
p4446
I01
sS'sxlam(tl()z)obc'
p4447
I01
sS'(jbql'
p4448
I00
sS'yn(((urnxxm)u)ldzpto'
p4449
I00
sS'(((()))))qyv(()'
p4450
I00
sS'svxn(o)rehl'
p4451
I01
sS'yycm'
p4452
I01
sS'ikx(se(z(ubkfaj))rzfpjb)bjmdpf'
p4453
I01
sS'd(rrv)))k'
p4454
I00
sS'(((((opzv(s)b)pczebcu)h)ap))sc'
p4455
I01
sS'ddlayjqx)n'
p4456
I00
sS'j()((((m)(()'
p4457
I00
sS'xqq((xl())ib)z'
p4458
I01
sS'sobptn)u'
p4459
I00
sS'(sgh(twwwf)h)w'
p4460
I01
sS'ehngenvt)'
p4461
I00
sS'hmut(gts)rr)'
p4462
I00
sS'('
p4463
I00
sS'(w)b'
p4464
I01
sS'(cgtdfdeee)p)i('
p4465
I00
sS'it()(xmsl)nko'
p4466
I01
sS'tudw'
p4467
I01
sS'j(edw(sg'
p4468
I00
sS'jah'
p4469
I01
sS'uusqoh)q)'
p4470
I00
sS'(e)(asxmng'
p4471
I00
sS'dqq(z()lcjqhz)b'
p4472
I01
sS'ph()zgyhkcoiwme'
p4473
I01
sS'dth(tedmcxhpvr)'
p4474
I01
sS'm(((()((c(muhgne)ggumnqfzo))f)'
p4475
I00
sS'(n(((p(j))ouo)gr))jjvkkkm)chfy'
p4476
I00
sS'fepflcvdalbdv'
p4477
I01
sS'(sxxudaw(l)v))clmroxtuam)'
p4478
I00
sS'x(((ayyzgzptgy)ynafcdx)fn'
p4479
I00
sS'ox(cf)(rnei'
p4480
I00
sS'sswexxaiuu)l'
p4481
I00
sS'nn(zmi(r)tg'
p4482
I00
sS'uqvgcssl(qmyvtjbbsrpdt)zljwhzf'
p4483
I01
sS'zhywvfiwz)'
p4484
I00
sS'd(edqv()cx))cp'
p4485
I00
sS'(ivvonvonyfe'
p4486
I00
sS'gcz(xlr)ijquu'
p4487
I01
sS'd()((rb)js)ja'
p4488
I01
sS'aer'
p4489
I01
sS'y(g((((tc)nnijvw))jlo)qaw'
p4490
I00
sS'b(kb'
p4491
I00
sS'aey'
p4492
I01
sS'h'
p4493
I01
sS'(pq'
p4494
I00
sS'as((bjcyhsi'
p4495
I00
sS'vlj(afur'
p4496
I00
sS'iqqve)iie'
p4497
I00
sS'((m(((cqys)eok)ljgh)xeehx'
p4498
I00
sS'j(zorawrs)toyy'
p4499
I01
sS'agtqq)c'
p4500
I00
sS'qf(haasz)v'
p4501
I01
sS'j((i((((a)mes))ngu)mejr))'
p4502
I01
sS'nzw(j(co)doa'
p4503
I00
sS'(dtrw(gseu)uwo)'
p4504
I01
sS'gww(hor))fkk'
p4505
I00
sS'dvu()mbycif)ntukwwxq'
p4506
I00
sS'h(a)t)'
p4507
I00
sS'(wg(qgggvuzb'
p4508
I00
sS'vsbdln((w))wh)'
p4509
I00
sS'ykd)'
p4510
I00
sS'((q((c)xnkhrkubjpb)afdo))'
p4511
I01
sS'rtz(nrociknnxi)'
p4512
I01
sS')os'
p4513
I00
sS')(acgs)'
p4514
I00
sS'(gls)y)(kv'
p4515
I00
sS'd(feejgghhhhxxjz)squjadss)qsck'
p4516
I00
sS'trtw(cyb'
p4517
I00
sS'()b(gubvfxm))f'
p4518
I00
sS'zb)jw'
p4519
I00
sS'laafkrt))'
p4520
I00
sS'qrr(iprcy'
p4521
I00
sS'voxuv((gf(do)bdgb)ha'
p4522
I00
sS'(zozke'
p4523
I00
sS'(())rdht'
p4524
I01
sS'n()il(bigytnfo'
p4525
I00
sS'elpxvig(nkf)j'
p4526
I01
sS'o)p'
p4527
I00
sS'dy(hvvnehy)lwja'
p4528
I01
sS'(hrfe(fwl)fymm'
p4529
I00
sS'o(nodt)k'
p4530
I01
sS'vir(ziz(uu)jqe'
p4531
I00
sS'(tzkhjabs'
p4532
I00
sS'im(sdm))gyt'
p4533
I00
sS'(hdh)(mpohjedclcf)xx'
p4534
I01
sS'((u))'
p4535
I01
sS'i()oo(((j))'
p4536
I00
sS'e(i((qac)aa)'
p4537
I00
sS'uy(lep(e)y)qtu'
p4538
I01
sS'b(ewc(((hk(w)bz)ww)nhqfj)'
p4539
I00
sS'(pmq((eet(dv)qyssg)qtk)nz))vxc'
p4540
I00
sS'((jrwj))ykk)xx'
p4541
I00
sS'ggbyqa(bd'
p4542
I00
sS'k(wrdypnfnz'
p4543
I00
sS'uflxxwu)v'
p4544
I00
sS'(((ktiu(rkfwi))'
p4545
I00
sS'r()h(m))ti'
p4546
I00
sS'tau))xhfp'
p4547
I00
sS'((tzg((j))dt)r)'
p4548
I01
sS'(znpbrk'
p4549
I00
sS'ppt(cll(((()evzpp)t)iiec)'
p4550
I00
sS'(dm((xjn))f)'
p4551
I01
sS'gf(vjf(vdnf)n)xdcmb)'
p4552
I00
sS'l)xll'
p4553
I00
sS'xy(zbg(tc)ptvzypveu)iyzmix)epb'
p4554
I00
sS'()t((f)'
p4555
I00
sS'igf(gbah)sksub'
p4556
I01
sS'((c)))'
p4557
I00
sS'jvls((pzullew)'
p4558
I00
sS'bzoktgs(e(azqeewqm)p)bbcgjxyvi'
p4559
I01
sS'(cl)y((of)'
p4560
I00
sS'(((uu)j)poxq'
p4561
I00
sS'k(bv(i)(g)lhxl'
p4562
I00
sS'kvhi(nm()z(mx))yidp)zpfrw'
p4563
I00
sS'ja)go('
p4564
I00
sS'el)o'
p4565
I00
sS'(kngrheirottygihiei)(c)q('
p4566
I00
sS'ixcei)hq'
p4567
I00
sS'a(p(h()mz))lqptxaxvsrrtyi'
p4568
I01
sS'(xnyudpgtmu))'
p4569
I00
sS'((lr))'
p4570
I01
sS'azso(((ccqnlducftvc)r)zzrd)uss'
p4571
I01
sS'ck'
p4572
I01
sS'cj'
p4573
I01
sS'ci'
p4574
I01
sS'ch'
p4575
I01
sS'co'
p4576
I01
sS'cn'
p4577
I01
sS'q((p(nj)m(rdli))h)fzglkft'
p4578
I01
sS'cl'
p4579
I01
sS'cc'
p4580
I01
sS'cb'
p4581
I01
sS'ca'
p4582
I01
sS'rkxp(l)qmgrkl'
p4583
I01
sS'ce'
p4584
I01
sS'cd'
p4585
I01
sS'defpgf(nypsap)xx)z)z'
p4586
I00
sS'cz'
p4587
I01
sS'mzzzzffd)ddmk'
p4588
I00
sS'cx'
p4589
I01
sS'hm)'
p4590
I00
sS'eall)'
p4591
I00
sS'kchevd((a())'
p4592
I00
sS'cr'
p4593
I01
sS'cq'
p4594
I01
sS'cp'
p4595
I01
sS'cw'
p4596
I01
sS'cu'
p4597
I01
sS'ct'
p4598
I01
sS'zsi(ia(ggzdk)lorktkb)wyachcoom'
p4599
I01
sS'apgskr)xnz'
p4600
I00
sS'(a(io(oxcmsxucn)euk)zydek'
p4601
I00
sS'g((pqjem)x'
p4602
I00
sS'xuslpzhdlkamfklsyhjs)ncht'
p4603
I00
sS'wkg(crgn'
p4604
I00
sS'eszdku)'
p4605
I00
sS'(k(gmu)ynqd)'
p4606
I01
sS'tsp(w'
p4607
I00
sS'ai'
p4608
I01
sS'cc(ppprccuuw'
p4609
I00
sS'cv)'
p4610
I00
sS'zl)ccgg'
p4611
I00
sS'((xkjx)zmzxou'
p4612
I00
sS'hrfgccrqw)b'
p4613
I00
sS'h(s((o(yu)q)uipvy))j'
p4614
I01
sS'(d(jci(wvddmz))'
p4615
I00
sS'v())l(co'
p4616
I00
sS'bo(ja)z(hf()mxb'
p4617
I00
sS'c)'
p4618
I00
sS'c('
p4619
I00
sS'h(l()gkllarnlub'
p4620
I00
sS'em(d))'
p4621
I00
sS'oobp(sdppj'
p4622
I00
sS'bjjcq((itcu)jj'
p4623
I00
sS'(b)owegjsmvjwd'
p4624
I01
sS'to((y)bjypswqd'
p4625
I00
sS'((wtimefna)n'
p4626
I00
sS'wg(lkvo'
p4627
I00
sS'imqq)ax(wt)'
p4628
I00
sS'(e(sb(q)(prz)hfqjzz)gvlnrc)fcn'
p4629
I01
sS'myy(t))))sgquu(w)eun'
p4630
I00
sS'okg(vsrt)vv(llwmmiugzqvnyuzk)n'
p4631
I01
sS'lonqaprw)'
p4632
I00
sS'((awmfjuze)wezb'
p4633
I00
sS'(bd((n)a)n'
p4634
I00
sS'm(h(((qi))))bg'
p4635
I01
sS'sj((aea(iolpul)q)ft)'
p4636
I01
sS'vj)(f)b(xfytchjegrpdnttfq'
p4637
I00
sS'((hs(xlcc)'
p4638
I00
sS'n((cckgj'
p4639
I00
sS'(wn(yy)(jjbyjfqosry)'
p4640
I00
sS'rbt'
p4641
I01
sS'xqvtsmk)kkol'
p4642
I00
sS's(dzu'
p4643
I00
sS'xlsra)nbo)'
p4644
I00
sS'o(zemilorhfbzkrjhf)e'
p4645
I01
sS'ar'
p4646
I01
sS'urfhavma(md'
p4647
I00
sS'(xg)o))zt'
p4648
I00
sS'ch(r'
p4649
I00
sS'cvg'
p4650
I01
sS'cve'
p4651
I01
sS'brr)(ldckubgmqffblau))uijucwmw'
p4652
I00
sS'p((owv(l))t'
p4653
I00
sS'()dtw()qzpabtv'
p4654
I01
sS'(vwquua((h)r)ln'
p4655
I00
sS'ra()ckdcs)iryg'
p4656
I00
sS'dz((()a(jw)uu)iffel)'
p4657
I01
sS'dev((a((qk)wggjl)kquuxbguobidd'
p4658
I00
sS'av'
p4659
I01
sS'y(ih'
p4660
I00
sS'vn'
p4661
I01
sS'm(hw)rt'
p4662
I01
sS'())amuj'
p4663
I00
sS'((swx)(pc)xun)'
p4664
I01
sS'(dsvoilwauubse'
p4665
I00
sS'f(wi)(dr'
p4666
I00
sS'())rpht'
p4667
I00
sS'iva((n(()rhkg)usg)hs'
p4668
I00
sS'(s(e()(((ela)v)vqbnvh)iugqu)z)'
p4669
I01
sS'(ff)jgull)p)'
p4670
I00
sS'yci(dohd'
p4671
I00
sS'(rvz(gg'
p4672
I00
sS')'
p4673
I00
sS'ph(e(no)npib)e'
p4674
I01
sS'lkx(ssfyzfv'
p4675
I00
sS'(tggbo)(dbg)ulqxawws'
p4676
I01
sS'zgu'
p4677
I01
sS'ba(rfk)q'
p4678
I01
sS'thyim(c(clsjndvidvl)jycazz)x)j'
p4679
I00
sS'aq())'
p4680
I00
sS'osseoatxkv)nxn'
p4681
I00
sS'gos(r)w()ixhfdn'
p4682
I01
sS')(rs)gshsgqlchi'
p4683
I00
sS'()n((jg)vyzrn'
p4684
I00
sS'm(qil'
p4685
I00
sS'p(rlamptxihi)'
p4686
I01
sS'jkfo)'
p4687
I00
sS'((aplebbbk'
p4688
I00
sS'ojelppdvlsnfxhshkslxvrlhadvjev'
p4689
I01
sS'v)'
p4690
I00
sS'sx(i)bc'
p4691
I01
sS'(q)lyz))z'
p4692
I00
sS'kr(f(ko)gfth)p'
p4693
I01
sS'pcz((g(nngk))j'
p4694
I00
sS'lqs(gv(kbzamw)hdqjsfckfia)axpf'
p4695
I01
sS'(uyh))'
p4696
I00
sS'unafxao'
p4697
I01
sS'pz)'
p4698
I00
sS'(mwhosx'
p4699
I00
sS'kktf((mpsun)))o'
p4700
I00
sS'ecqvnmjwu)'
p4701
I00
sS'rp(xoq((acuqzw)fzpwtqjwx)koc)z'
p4702
I01
sS'l()y(xwraizexzzzdwvzfb))w'
p4703
I00
sS'(jlmbr(ccdx)vooxjurgk)ixfdmjsq'
p4704
I01
sS'()s(lv)))tbbxs'
p4705
I00
sS'yo(g)a(ametl)'
p4706
I01
sS'cj)'
p4707
I00
sS'bgerhjngck)v'
p4708
I00
sS'(())(rz(l(wr'
p4709
I00
sS'i'
p4710
I01
sS'i((n(tiw'
p4711
I00
sS'r))ya'
p4712
I00
sS'zh(kq()ob)y'
p4713
I01
sS'(blwloti'
p4714
I00
sS'l((xaqnu'
p4715
I00
sS'rx)uhpy'
p4716
I00
sS'hgbepw)'
p4717
I00
sS'ofv'
p4718
I01
sS'tpi(wdcqlimx)'
p4719
I01
sS'((()r)p)bnll('
p4720
I00
sS'eazkk))en'
p4721
I00
sS'ofy'
p4722
I01
sS'tnykwo(essrqqogjauwo)gtssqgffe'
p4723
I01
sS'g(l)llhybsnwkj'
p4724
I01
sS'(j)((((mmtmrjgu'
p4725
I00
sS'()(rhnuulzho'
p4726
I00
sS'ooo(bp'
p4727
I00
sS'rsc(e)qxa'
p4728
I01
sS'nqj(y((lo)s)k'
p4729
I00
sS'(hyz()z(q)ulmm)'
p4730
I01
sS'smb)lv'
p4731
I00
sS'j(fyytns))i'
p4732
I00
sS'uhp((mbfvybjufm)lqk)'
p4733
I01
sS'd(mpmxbe(x)x)mssedfrmmgaa)fuyk'
p4734
I00
sS'k(io'
p4735
I00
sS'b)jhw'
p4736
I00
sS'()wxqqe(uukcxkhhucfte)mm(neltc'
p4737
I00
sS'cu((js(fk)'
p4738
I00
sS'awf)'
p4739
I00
sS'f(zar(mxj)ruz)'
p4740
I01
sS'wek'
p4741
I01
sS'(y(stsz)ot)mg'
p4742
I01
sS'hrfsliiddvycz'
p4743
I01
sS'omtb'
p4744
I01
sS'z(xnmnemkiqqoqwvkauy'
p4745
I00
sS'tz)x'
p4746
I00
sS'wem'
p4747
I01
sS'wlhsze((bvirgrjb)ic)'
p4748
I01
sS'bzp((ldlzommrzsy)ootkzg))'
p4749
I00
sS'dwvmixzeszdya'
p4750
I01
sS'(uzjy(w)eebu'
p4751
I00
sS'()t(ghhb(kchc)jtkmvqbpqggnyhwi'
p4752
I00
sS'b((uu()wkdmozy)wkpk)sygjtnxlei'
p4753
I01
sS'm(yyviwrcr))f'
p4754
I00
sS'cwevo)u'
p4755
I00
sS'elsjov((((u))rnf)omz)zluj'
p4756
I01
sS'ntcmuuuye)o'
p4757
I00
sS'i(((yyplu'
p4758
I00
sS'(lbcm'
p4759
I00
sS'tjzrnhlr))o'
p4760
I00
sS'(q(io)k)()dmep'
p4761
I01
sS'qezmqtna('
p4762
I00
sS'(xb'
p4763
I00
sS'(d(fjgjz)svjadd)qsck'
p4764
I01
sS'ob(amuo((jol)qngfnvupro)upllq)'
p4765
I01
sS's(wlvkspzrpou'
p4766
I00
sS'lkhftj)ts'
p4767
I00
sS'h(ezk()w((w)fyueqf)x)ibkr'
p4768
I01
sS'eu('
p4769
I00
sS'pt((ssl'
p4770
I00
sS'(k)()r(()k)dzek'
p4771
I01
sS'z(())v)'
p4772
I00
sS'(((g)fcbx)ss'
p4773
I00
sS'q(ddhb(oatodf)xnu)oe'
p4774
I01
sS'xk(l)le))mm'
p4775
I00
sS'zgsq(ndrlxj'
p4776
I00
sS'())ajcmt'
p4777
I00
sS'((tz(mgmowks)urg))ehswax)hxxnr'
p4778
I00
sS'iyq('
p4779
I00
sS'guk(()yx))wyo'
p4780
I00
sS's(ufbj)c)'
p4781
I00
sS'()hrdmnrt)r)'
p4782
I00
sS'bdk(om)g'
p4783
I01
sS'oz(matmk'
p4784
I00
sS'((p'
p4785
I00
sS'ja(qh(()uf)))'
p4786
I00
sS'wuk(xmwoe'
p4787
I00
sS'(zexm))sg'
p4788
I00
sS'tnt(txzh)e)btvucarkjfqqw)'
p4789
I00
sS'rqa((hjiqs)'
p4790
I00
sS'ig()cs)rmb'
p4791
I00
sS'sq(ixxa)vce'
p4792
I01
sS'egyxxvy(((x)k)wlfu)d'
p4793
I01
sS'(gsqff(wxs)ua'
p4794
I00
sS'(fbl(arepf'
p4795
I00
sS'p(bp(tsfmbed)bejk))x'
p4796
I00
sS'hahme))'
p4797
I00
sS'za(oz))nsw)zt'
p4798
I00
sS'((l)oxaqetcwcnl'
p4799
I00
sS'l(i)(bsgq)m'
p4800
I01
sS'ugaig()uiju)ss'
p4801
I00
sS'o((fd(v(kcuh)oq)gn)fpqczc)lwn)'
p4802
I00
sS'sfzz(hxkl'
p4803
I00
sS'eegejbh(dtrd'
p4804
I00
sS'mitmxwyu)iaebnglskjykkspp'
p4805
I00
sS'fj(tee'
p4806
I00
sS'r(tynj'
p4807
I00
sS'eaxx(s))()wwwgw'
p4808
I00
sS'ttt)dd'
p4809
I00
sS'm(s)us'
p4810
I01
sS'elmxxdia((ntu)d'
p4811
I00
sS'qk()s('
p4812
I00
sS'(xyf'
p4813
I00
sS'q((ietcxyfu)y)o'
p4814
I01
sS'qk((qd()u)yz(rs'
p4815
I00
sS'bowqyhlb(zc)ren'
p4816
I01
sS'y()(q(ow)wexddyicj)fax)yw'
p4817
I00
sS'ms(mvpkoh'
p4818
I00
sS's(aaqjjjjfpqqj'
p4819
I00
sS'f(vjac(f(kskd)hbz)uqvxlntppd)n'
p4820
I01
sS'kml)rgx'
p4821
I00
sS'kfajyazuywvjeuqbyactdhiwzqh)uy'
p4822
I00
sS'md((rctaj)'
p4823
I00
sS'(()'
p4824
I00
sS'()sqff(wxs)dna'
p4825
I01
sS'jl)'
p4826
I00
sS'w((xrgeeg)pwo'
p4827
I00
sS'fa(kplzqsannislrshmin)dyw'
p4828
I01
sS'hq(jk(r)xgps)uk'
p4829
I01
sS'b()kll(jmzvt)jb'
p4830
I01
sS'vyqlre)(lcyvagyrzy))'
p4831
I00
sS'lku(sx'
p4832
I00
sS'tpc()bde(qlpa)rhcvue'
p4833
I01
sS'sknj)'
p4834
I00
sS'dkp()syhivwrkassbbrildktcqquyv'
p4835
I01
sS'(ddm((xjn))f)))'
p4836
I00
sS'xyeuuz)'
p4837
I00
sS'r((g)((nnaqfpyrsf)k)'
p4838
I00
sS'(hnj'
p4839
I00
sS'jxxec)xjatg'
p4840
I00
sS'az(xn)gniuoyu'
p4841
I01
sS'bjyu(bnkja'
p4842
I00
sS'(wt)a(frv'
p4843
I00
sS'k((lcv)hv))dgs'
p4844
I00
sS'hiikri('
p4845
I00
sS'thcgb(arw)wia'
p4846
I01
sS'i(()crz(wakuntyieytcqks))wgaxp'
p4847
I01
sS'ooc(e)bdttmv)'
p4848
I00
sS'ccz)'
p4849
I00
sS'rluhjeqwdlitz'
p4850
I01
sS'n(zuo'
p4851
I00
sS'ru(emde(tyxkvna)ox)v'
p4852
I01
sS'lhrj(tyd)i'
p4853
I01
sS'siic((kzlfb)wujnzix)'
p4854
I01
sS'mj((i(h()bse)wwpci)z'
p4855
I00
sS'au(dvvr(qmddvlk)i))d'
p4856
I00
sS'()u((bj)v)zdsym'
p4857
I01
sS'h('
p4858
I00
sS'h)'
p4859
I00
sS'ws)bggt'
p4860
I00
sS'p(uih'
p4861
I00
sS'wy))a(he'
p4862
I00
sS'jf(sho'
p4863
I00
sS'u(b((ipmausjepjxv))i'
p4864
I00
sS'bebz)'
p4865
I00
sS'p()nghlzf'
p4866
I01
sS'()uv(ff'
p4867
I00
sS'clu(kgcybmnxiq'
p4868
I00
sS'r)g)'
p4869
I00
sS'q((aybr)'
p4870
I00
sS'txbi)'
p4871
I00
sS'jzh'
p4872
I01
sS'qptuooszm'
p4873
I01
sS'i(dui(n)nkjtavvufdw)'
p4874
I01
sS'byvjc(gznrmtzsvey)ep'
p4875
I01
sS'((m(acacncjfoidvxpoccic))aakv)'
p4876
I01
sS'yrx'
p4877
I01
sS'bnb(p)b'
p4878
I01
sS'us(s'
p4879
I00
sS'n()(y(h()on)eoancywibvp)o'
p4880
I01
sS'(()ojo((ce)j)oarpp)ogjszo'
p4881
I01
sS'(tqbe'
p4882
I00
sS'i(((su))xpo'
p4883
I00
sS'(zyta(fgrif))z'
p4884
I01
sS'phagbfnnn)w'
p4885
I00
sS'(v(du(z)lgcgvfq)u)kukryve'
p4886
I01
sS'hy'
p4887
I01
sS'tgvu(hqxfsharc)qvpit'
p4888
I01
sS'who(erwid'
p4889
I00
sS'dqpoxiih)i'
p4890
I00
sS'fsc)covdewwi'
p4891
I00
sS'u)k'
p4892
I00
sS'fnnu(tx(m)'
p4893
I00
sS'((uutt)lbbssp'
p4894
I00
sS'x(l(asfkmpchofjxwgofcvhta)st)h'
p4895
I01
sS'pddl)f'
p4896
I00
sS'bskmtvi)gja'
p4897
I00
sS'd(inffaqdxc'
p4898
I00
sS'(gvaw'
p4899
I00
sS'u)x'
p4900
I00
sS'pppxuu))'
p4901
I00
sS'cf(nd()h'
p4902
I00
sS'he'
p4903
I01
sS'(ubws(((e)))e)clixvm'
p4904
I01
sS'euzml((fsk)oz))kd)ce'
p4905
I00
sS'ifo(uax)'
p4906
I01
sS'ul(((tdrrm)gg)'
p4907
I00
sS'qy(d(rdik)c)su'
p4908
I01
sS'pszcetamcv)pz'
p4909
I00
sS'((qz(n)())vlvhhupgnbwhcr)qtsyv'
p4910
I01
sS'pm((u)o'
p4911
I00
sS'(((aa(iru))x'
p4912
I00
sS'u(jdx))(s)a)q'
p4913
I00
sS'e(ufy(()adfmlv)xulns)tkgk'
p4914
I01
sS'zd(a)tlwxfdzq'
p4915
I01
sS't(jmzr)()lzvprqexv)ibkxyw'
p4916
I00
sS'l((f)rxccc'
p4917
I00
sS'(f()hjci'
p4918
I00
sS'fi((wksjb)'
p4919
I00
sS'v((ee))o)pcxkd'
p4920
I00
sS'eswjw(((dw)zojbblrt)rejnd'
p4921
I00
sS'meuz)(fbq)zh'
p4922
I00
sS'hqdy'
p4923
I01
sS'x((sqt)fwey)jc'
p4924
I01
sS'rcey(kthwyd)kqeixoua'
p4925
I01
sS'cr()ouvl)'
p4926
I00
sS'x(tpyx'
p4927
I00
sS'o(w))(((uy)pccselt(mk)xi)'
p4928
I00
sS'ftjj)g(fk)o'
p4929
I00
sS'ca(gjg()ogwkyn'
p4930
I00
sS'x(()'
p4931
I00
sS'qyl)rhkwggbjc'
p4932
I00
sS'dg((ivouu)'
p4933
I00
sS'qxqs(b)qklxlgltmpjtax(fzi'
p4934
I00
sS'(g(kxcyghmmmiiiii)gddyyy)eamvv'
p4935
I01
sS'i(o)quta(qegy)'
p4936
I01
sS'qv((cpg(o)nuktqp((g)xppssr)n)r'
p4937
I00
sS'(((b)zadzjec'
p4938
I00
sS'bwmn(liqtff'
p4939
I00
sS'eo('
p4940
I00
sS'(()grc(mn)jl'
p4941
I00
sS'(for)(ou)qdjivlxia(c'
p4942
I00
sS'(ike)i()'
p4943
I01
sS'nrf'
p4944
I01
sS'u'
p4945
I01
sS'v(g'
p4946
I00
sS'nro(dyafz'
p4947
I00
sS'w((()abgtz)'
p4948
I00
sS'snni()dfffcgel(siy(mflxqz'
p4949
I00
sS'u((ey(olhws)'
p4950
I00
sS's(kh'
p4951
I00
sS'g(o(x)(hh(xj)ml))))v'
p4952
I00
sS'x()ah(y(ywhjo))ygg)))wsjvvvlyy'
p4953
I00
sS'qlthx)'
p4954
I00
sS'j(nusdbwdxqbf'
p4955
I00
sS'w(jbbgrs'
p4956
I00
sS'dzad(e)b)i'
p4957
I00
sS'i(vi(csvjdyrdzz)em)fvsswx'
p4958
I01
sS'gkahs(no)neq'
p4959
I01
sS'in)'
p4960
I00
sS'x()()(bpy(cg)))l)cyuoyaykdiigi'
p4961
I00
sS'gp)n'
p4962
I00
sS'((mp)'
p4963
I00
sS'lnaqbn)earr'
p4964
I00
sS'()p('
p4965
I00
sS'kkvhm)jx'
p4966
I00
sS'jjofdo(mh'
p4967
I00
sS'qk((qt()u)yz)s'
p4968
I01
sS'()lnkm'
p4969
I01
sS'hsy((sqdfqzb()xxeppsfcmrw))ppl'
p4970
I01
sS'(h)b(jt(ki'
p4971
I00
sS'(ccxeeunffmwmm'
p4972
I00
sS'wk(j()ivtxrpsx)hlb)evvoofxkrmk'
p4973
I00
sS'()a((zxxvb)tcw)'
p4974
I01
sS'qqph)mfhv'
p4975
I00
sS')m'
p4976
I00
sS'xmes(u()(za)jxefjscodqpf)'
p4977
I01
sS'wx)'
p4978
I00
ss.