(lp0
F0.023322202265262604
aF0.5316475629806519
aF0.5492151975631714
aF-0.003738880157470703
aF-0.011362742632627487
aF-0.0470464751124382
aF-0.04935648292303085
aF0.25854024291038513
aF-0.027346041053533554
aF0.053375035524368286
aF0.017014332115650177
aF0.3932335376739502
aF0.1126193180680275
aF-0.10107040405273438
aF0.017378315329551697
aF-0.08094793558120728
aF-0.011783260852098465
aF-0.12554340064525604
aF0.14841045439243317
aF-0.29700636863708496
aF0.0833246037364006
aF0.07537595927715302
aF0.12184196710586548
aF-0.08378669619560242
aF0.05406661331653595
aF-0.5377513766288757
aF0.010097544640302658
aF-0.07330293953418732
aF0.025180812925100327
aF-0.03282400965690613
aF-0.08437331765890121
aF0.06239214539527893
aF0.0991864949464798
aF0.01794268935918808
aF0.01977546513080597
aF-0.11065790802240372
aF-0.11506059020757675
aF-0.4691268503665924
aF-0.05358988046646118
aF0.07790132611989975
aF0.028398148715496063
aF-0.006641637533903122
aF0.03117647022008896
aF-0.15252773463726044
aF-0.016257360577583313
aF-0.1539980173110962
aF0.11152805387973785
aF-0.03954554349184036
aF-0.11041323095560074
aF0.18340840935707092
aF-0.017209816724061966
aF-0.09002110362052917
aF0.06498495489358902
aF0.130030557513237
aF-0.029093291610479355
aF0.11599002778530121
aF-0.01587296836078167
aF-0.14074388146400452
aF-0.1887379288673401
aF-0.13882791996002197
aF-0.09876763075590134
aF0.046426862478256226
aF0.12250848859548569
aF0.28404349088668823
aF-0.15933844447135925
aF0.26694977283477783
aF-0.24555248022079468
aF-0.09718088805675507
aF0.06420345604419708
aF0.26628321409225464
aF-0.10588695853948593
aF0.20020505785942078
aF0.03734280541539192
aF-0.5160333514213562
aF-0.1705857217311859
aF0.07056108117103577
aF-0.0018373876810073853
aF0.10724302381277084
aF-0.05710352212190628
aF0.06390856951475143
aF0.004629768431186676
aF-0.041290298104286194
aF0.09319169074296951
aF-0.024181099608540535
aF-0.09688780456781387
aF0.033270448446273804
aF-0.07486526668071747
aF0.011593788862228394
aF-0.10613134503364563
aF0.08398476243019104
aF0.06088458001613617
aF-0.044068846851587296
aF-0.07662509381771088
aF-0.0541335865855217
aF-0.08110267668962479
aF0.05918349325656891
aF0.17837616801261902
aF-0.020347751677036285
aF-0.4152269959449768
aF0.10264665633440018
aF-0.1002921462059021
aF-0.19909995794296265
aF0.1370294690132141
aF-0.08763781189918518
aF0.10398465394973755
aF-0.19923317432403564
aF0.19126677513122559
aF-0.10104900598526001
aF0.19299393892288208
aF-0.27862536907196045
aF-0.040457963943481445
aF0.1176876425743103
aF0.20847928524017334
aF0.0032978206872940063
aF0.3266355097293854
aF-0.0023960471153259277
aF0.18214507400989532
aF0.2609737813472748
aF0.001887977123260498
aF-0.056780897080898285
aF0.14591854810714722
aF0.09285347163677216
aF0.11033594608306885
aF-0.13135764002799988
aF0.13675272464752197
aF0.16384023427963257
aF-0.5472361445426941
aF-0.08610415458679199
aF-0.30072158575057983
aF-0.346765398979187
aF-0.11855340003967285
aF-0.09296870231628418
aF-0.21760493516921997
aF-0.05753523111343384
aF-0.1963396519422531
aF0.14978241920471191
aF-0.10022187232971191
aF0.13481968641281128
aF-0.04668372869491577
aF0.16001886129379272
aF0.24280178546905518
aF-0.05671083927154541
aF-0.07008635997772217
aF-0.1253190040588379
aF0.10113314539194107
aF-0.07792991399765015
aF-0.09983649849891663
aF-0.24701440334320068
aF-0.17838937044143677
aF-0.0738646388053894
aF-0.28358832001686096
aF-0.2943267822265625
aF-0.0873117446899414
aF0.31497490406036377
aF0.08107811212539673
aF-0.1488933116197586
aF0.13009637594223022
aF0.1337808072566986
aF-0.03975847363471985
aF0.2876342236995697
aF-0.30184170603752136
aF0.04782217741012573
aF0.2178441882133484
aF0.0241935383528471
aF-0.019752830266952515
aF0.06515008211135864
aF0.17843970656394958
aF-0.19327223300933838
aF-0.04208517074584961
aF0.26520299911499023
aF-0.32366693019866943
aF-0.2378232777118683
aF-0.10146743059158325
aF0.214216411113739
aF0.21041494607925415
aF-0.26725828647613525
aF0.12162202596664429
aF-0.06864525377750397
aF-0.07174330949783325
aF-0.3037220239639282
aF-0.1656436324119568
aF0.004145205020904541
aF0.08197152614593506
aF0.2940891981124878
aF0.13923507928848267
aF0.038616180419921875
aF0.13138777017593384
aF0.4182186424732208
aF0.12556380033493042
aF0.07790185511112213
aF0.0026412606239318848
aF-0.2532913088798523
aF0.12228082120418549
aF-0.14610910415649414
aF0.20048341155052185
aF0.013383030891418457
aF0.08365637063980103
aF0.0371166467666626
aF0.2386629581451416
aF-0.20789432525634766
a.