(dp0
S'num_neg'
p1
I610
sS'num_pos'
p2
I9
sS'data'
p3
(dp4
S''
p5
I01
sS'110000'
p6
I00
sS'110001'
p7
I00
sS'1100100010111011'
p8
I00
sS'010'
p9
I00
sS'011'
p10
I00
sS'1010111000010101'
p11
I00
sS'101010010111'
p12
I00
sS'001000101010'
p13
I00
sS'10101'
p14
I00
sS'10100'
p15
I00
sS'000001001110'
p16
I00
sS'00101000101'
p17
I00
sS'0101111000'
p18
I00
sS'0'
p19
I00
sS'0011101'
p20
I00
sS'00011110'
p21
I00
sS'0010101101011'
p22
I00
sS'0010101110010100010100'
p23
I00
sS'10111101110'
p24
I00
sS'1111110000111'
p25
I00
sS'0100001111000110100010'
p26
I00
sS'0001011001000000101'
p27
I00
sS'1011111101111001101'
p28
I00
sS'0111111000010'
p29
I00
sS'0000011110'
p30
I00
sS'101001011110'
p31
I00
sS'011010000'
p32
I00
sS'01100011'
p33
I00
sS'100000100'
p34
I00
sS'0110101111111010000110'
p35
I00
sS'00001111001'
p36
I00
sS'01000000'
p37
I00
sS'111011110'
p38
I00
sS'1100111101011100011011'
p39
I00
sS'001001110110'
p40
I00
sS'0010011001000011010'
p41
I00
sS'001110100'
p42
I00
sS'01010011001'
p43
I00
sS'10001010001'
p44
I00
sS'00001110'
p45
I00
sS'01111001'
p46
I00
sS'0110'
p47
I00
sS'0111'
p48
I00
sS'1110010000000001100'
p49
I00
sS'0111110010111'
p50
I00
sS'010111111'
p51
I00
sS'1011100'
p52
I00
sS'1110111111000000'
p53
I00
sS'1100100110110'
p54
I00
sS'01101010'
p55
I00
sS'0001000011101'
p56
I00
sS'001001'
p57
I00
sS'001000'
p58
I00
sS'0000001110'
p59
I00
sS'01000001'
p60
I00
sS'0010010001111010100'
p61
I00
sS'110011110'
p62
I00
sS'001100111011'
p63
I00
sS'1000110100010111000010'
p64
I00
sS'010000001'
p65
I00
sS'100010'
p66
I00
sS'100111110111'
p67
I00
sS'1111011110'
p68
I00
sS'1010'
p69
I01
sS'1011'
p70
I00
sS'1110000'
p71
I00
sS'00000010'
p72
I00
sS'1111100100101110100'
p73
I00
sS'111101001'
p74
I00
sS'100'
p75
I00
sS'101'
p76
I00
sS'11101001011'
p77
I00
sS'0000111'
p78
I00
sS'11001'
p79
I00
sS'11000'
p80
I00
sS'110011110011'
p81
I00
sS'011110101'
p82
I00
sS'0100011'
p83
I00
sS'100111010000'
p84
I00
sS'1110100101'
p85
I00
sS'01011101'
p86
I00
sS'10110010001'
p87
I00
sS'111111110100'
p88
I00
sS'1101110010'
p89
I00
sS'0010011101'
p90
I00
sS'0010001101101'
p91
I00
sS'010100'
p92
I00
sS'010101'
p93
I00
sS'110111000011'
p94
I00
sS'0110010100001'
p95
I00
sS'10011011'
p96
I00
sS'111101101010'
p97
I00
sS'0000010001100010011000'
p98
I00
sS'0001101110111011101'
p99
I00
sS'0111101100100000111'
p100
I00
sS'00010001000'
p101
I00
sS'110010111010'
p102
I00
sS'0011101011101011'
p103
I00
sS'1111010011001011100110'
p104
I00
sS'0010101'
p105
I00
sS'0010100'
p106
I00
sS'101010001'
p107
I00
sS'110101'
p108
I00
sS'1100000001000'
p109
I00
sS'1101000'
p110
I00
sS'0100110111100000'
p111
I00
sS'0001011110101'
p112
I00
sS'1010001'
p113
I00
sS'1010000'
p114
I00
sS'01110'
p115
I00
sS'1000010'
p116
I00
sS'01100110'
p117
I00
sS'11001110000'
p118
I00
sS'0001000110011000010'
p119
I00
sS'1010111001111011110'
p120
I00
sS'000101'
p121
I00
sS'000100'
p122
I00
sS'00001010'
p123
I00
sS'00001011'
p124
I00
sS'0101000010010'
p125
I00
sS'0011001'
p126
I00
sS'11111011'
p127
I00
sS'001000111'
p128
I00
sS'00101000'
p129
I00
sS'1010101101'
p130
I00
sS'111001110'
p131
I00
sS'010011100'
p132
I00
sS'0011010111'
p133
I00
sS'1100011001100100010'
p134
I00
sS'00010000'
p135
I00
sS'1110011111'
p136
I00
sS'010000111011'
p137
I00
sS'0100110101111011000'
p138
I00
sS'010100001111'
p139
I00
sS'010011'
p140
I00
sS'1010101000011011'
p141
I00
sS'101111'
p142
I00
sS'1101100000'
p143
I00
sS'0111000110'
p144
I00
sS'010001'
p145
I00
sS'10010100001'
p146
I00
sS'1001000010000110100'
p147
I00
sS'1000000101001001101010'
p148
I00
sS'011001'
p149
I00
sS'00100100000'
p150
I00
sS'1110000001000100000011'
p151
I00
sS'1100011010'
p152
I00
sS'10010110'
p153
I00
sS'0001000100010011'
p154
I00
sS'111111'
p155
I00
sS'0001100010111110'
p156
I00
sS'001110111000'
p157
I00
sS'0100011100000001'
p158
I00
sS'11010000'
p159
I00
sS'1100011000'
p160
I00
sS'1010001101100'
p161
I00
sS'110010000'
p162
I00
sS'1'
p163
I00
sS'0111000111001'
p164
I00
sS'101011101011'
p165
I00
sS'00010111111'
p166
I00
sS'1101110001110000000'
p167
I00
sS'10100001'
p168
I00
sS'0110010001111110101'
p169
I00
sS'00010'
p170
I00
sS'00011'
p171
I00
sS'1100101'
p172
I00
sS'0001001111100001000'
p173
I00
sS'0110101110'
p174
I00
sS'1100100000'
p175
I00
sS'110010'
p176
I00
sS'0111101101'
p177
I00
sS'0100110101011010000'
p178
I00
sS'0011111101001101'
p179
I00
sS'101110'
p180
I00
sS'1100100001011110001'
p181
I00
sS'0010001101100111'
p182
I00
sS'10001000'
p183
I00
sS'0001101101011'
p184
I00
sS'10110'
p185
I00
sS'10111'
p186
I00
sS'00001101111'
p187
I00
sS'1101001000'
p188
I00
sS'01011'
p189
I00
sS'01010'
p190
I00
sS'110001110111'
p191
I00
sS'01111'
p192
I00
sS'1011000101100111'
p193
I00
sS'00010101110'
p194
I00
sS'101111011'
p195
I00
sS'011111100'
p196
I00
sS'1100110111'
p197
I00
sS'111001101'
p198
I00
sS'101011001'
p199
I00
sS'1001011010000011110010'
p200
I00
sS'001000010'
p201
I00
sS'10000001000'
p202
I00
sS'0100101100111'
p203
I00
sS'1011100001101010'
p204
I00
sS'000110011'
p205
I00
sS'11101100110'
p206
I00
sS'101010101010'
p207
I01
sS'0010101111100000'
p208
I00
sS'1101110101000001101110'
p209
I00
sS'010110101'
p210
I00
sS'1111111001'
p211
I00
sS'000101010111'
p212
I00
sS'000111010'
p213
I00
sS'101110111'
p214
I00
sS'0111110110011000'
p215
I00
sS'0101'
p216
I00
sS'0100'
p217
I00
sS'11000110'
p218
I00
sS'0010011'
p219
I00
sS'011001000000'
p220
I00
sS'001100001'
p221
I00
sS'01111011111'
p222
I00
sS'01100'
p223
I00
sS'0111011011011001000010'
p224
I00
sS'1101011'
p225
I00
sS'11110110'
p226
I00
sS'0101011110011100'
p227
I00
sS'100000'
p228
I00
sS'0100011110011110010111'
p229
I00
sS'111010'
p230
I00
sS'111010110'
p231
I00
sS'1001'
p232
I00
sS'1000'
p233
I00
sS'000100001111'
p234
I00
sS'1010101010101010101010'
p235
I01
sS'100101000'
p236
I00
sS'001100'
p237
I00
sS'001101'
p238
I00
sS'0001111011111000'
p239
I00
sS'1101101111101110010101'
p240
I00
sS'0100000'
p241
I00
sS'0100001'
p242
I00
sS'0111100111010000'
p243
I00
sS'11010'
p244
I00
sS'11011'
p245
I00
sS'0101001101'
p246
I00
sS'00111'
p247
I00
sS'00110'
p248
I00
sS'01011110'
p249
I00
sS'0110000'
p250
I00
sS'0001011101000'
p251
I00
sS'010111'
p252
I00
sS'010110'
p253
I00
sS'110110'
p254
I00
sS'110111'
p255
I00
sS'1110101'
p256
I00
sS'10011'
p257
I00
sS'10010'
p258
I00
sS'1110101000'
p259
I00
sS'11'
p260
I00
sS'10'
p261
I01
sS'0011010100110110'
p262
I00
sS'0001101001011111110011'
p263
I00
sS'1011000111000100'
p264
I00
sS'0010110'
p265
I00
sS'1001000001'
p266
I00
sS'1010101110110010100'
p267
I00
sS'1010010010'
p268
I00
sS'100110100'
p269
I00
sS'1010111'
p270
I00
sS'1000011100100110011110'
p271
I00
sS'1010011'
p272
I00
sS'01111000111'
p273
I00
sS'0101110001'
p274
I00
sS'10101110'
p275
I00
sS'011011100'
p276
I00
sS'0110001110011000'
p277
I00
sS'0010110000001100'
p278
I00
sS'1000100001101'
p279
I00
sS'1100101101111010111000'
p280
I00
sS'1100101001001110111'
p281
I00
sS'11111001'
p282
I00
sS'11100011110'
p283
I00
sS'00101010'
p284
I00
sS'101000011011'
p285
I00
sS'0000011100110'
p286
I00
sS'0110010101111'
p287
I00
sS'101100'
p288
I00
sS'1101100'
p289
I00
sS'1000010011001101'
p290
I00
sS'1111111'
p291
I00
sS'00000101'
p292
I00
sS'1101011000000010010'
p293
I00
sS'1110101011101'
p294
I00
sS'1000100011010010110001'
p295
I00
sS'0011011101011111001110'
p296
I00
sS'1010101010111'
p297
I00
sS'010000110000'
p298
I00
sS'1101011000011100'
p299
I00
sS'0001011100'
p300
I00
sS'0101100100'
p301
I00
sS'0111111110'
p302
I00
sS'001001010010'
p303
I00
sS'110111111'
p304
I00
sS'011011'
p305
I00
sS'011010'
p306
I00
sS'1100001'
p307
I00
sS'11111'
p308
I00
sS'11110'
p309
I00
sS'000101100011'
p310
I00
sS'001001100010'
p311
I00
sS'0000011100100011011'
p312
I00
sS'11011010101'
p313
I00
sS'1000001000110011'
p314
I00
sS'010010'
p315
I00
sS'1111111011001'
p316
I00
sS'010010010001'
p317
I00
sS'1110111101110111100'
p318
I00
sS'0111011000010001110'
p319
I00
sS'00000101100'
p320
I00
sS'0001010'
p321
I00
sS'1101101101011001'
p322
I00
sS'0100100'
p323
I00
sS'10010000110'
p324
I00
sS'0000100100'
p325
I00
sS'0011011011100011101'
p326
I00
sS'0000100101110000011'
p327
I00
sS'00110011'
p328
I00
sS'00110010'
p329
I00
sS'101010'
p330
I01
sS'10101010'
p331
I01
sS'0010010'
p332
I00
sS'0011000011'
p333
I00
sS'00111111101'
p334
I00
sS'01011001011'
p335
I00
sS'01011111101'
p336
I00
sS'00000001100'
p337
I00
sS'1000001101001011111'
p338
I00
sS'1010110101011101001'
p339
I00
sS'0001000101000110001'
p340
I00
sS'1110111011'
p341
I00
sS'100101110'
p342
I00
sS'1111010111101110'
p343
I00
sS'0001010100100'
p344
I00
sS'1111001010110000100'
p345
I00
sS'00'
p346
I00
sS'01010000000'
p347
I00
sS'1010100000011'
p348
I00
sS'10110110'
p349
I00
sS'01000'
p350
I00
sS'01001'
p351
I00
sS'011111110'
p352
I00
sS'0010010100111'
p353
I00
sS'11011100101'
p354
I00
sS'11011100100'
p355
I00
sS'10001001101'
p356
I00
sS'1101110110001'
p357
I00
sS'001000000'
p358
I00
sS'010011010'
p359
I00
sS'0011111'
p360
I00
sS'0011110'
p361
I00
sS'110011011111'
p362
I00
sS'1101111100001011001'
p363
I00
sS'1100000011010'
p364
I00
sS'0010010100011000110110'
p365
I00
sS'00101111'
p366
I00
sS'01000110'
p367
I00
sS'0001'
p368
I00
sS'10111000001'
p369
I00
sS'10111000000'
p370
I00
sS'110110010'
p371
I00
sS'001001011111'
p372
I00
sS'00101000011'
p373
I00
sS'0101111111'
p374
I00
sS'111000111'
p375
I00
sS'1111011011000'
p376
I00
sS'0010000101000011011010'
p377
I00
sS'1010101010011'
p378
I00
sS'111111010101'
p379
I00
sS'11011101001'
p380
I00
sS'0111100011001011'
p381
I00
sS'010011111010'
p382
I00
sS'010101101'
p383
I00
sS'1111111100001001001'
p384
I00
sS'0110111001'
p385
I00
sS'011110'
p386
I00
sS'011100010'
p387
I00
sS'1000101001'
p388
I00
sS'0100011010'
p389
I00
sS'001011000011'
p390
I00
sS'1011010010101001100010'
p391
I00
sS'000001110'
p392
I00
sS'0101001'
p393
I00
sS'0101000'
p394
I00
sS'1100100110101100001'
p395
I00
sS'10101011001'
p396
I00
sS'11010100'
p397
I00
sS'001011011'
p398
I00
sS'101011011'
p399
I00
sS'111001'
p400
I00
sS'111000'
p401
I00
sS'1111001100010101110'
p402
I00
sS'0100010100110'
p403
I00
sS'0000'
p404
I00
sS'01'
p405
I00
sS'001100100101'
p406
I00
sS'0000101100001010111001'
p407
I00
sS'111011000011'
p408
I00
sS'0101000011110000110101'
p409
I00
sS'01101101'
p410
I00
sS'001110'
p411
I00
sS'1100011110'
p412
I00
sS'0001101111010010010100'
p413
I00
sS'1001110010111011000'
p414
I00
sS'00000000001'
p415
I00
sS'0011110000'
p416
I00
sS'00110110'
p417
I00
sS'1010001110'
p418
I00
sS'0100010'
p419
I00
sS'1111010001001010'
p420
I00
sS'1100'
p421
I00
sS'1101'
p422
I00
sS'00100'
p423
I00
sS'00101'
p424
I00
sS'11011000'
p425
I00
sS'000101001'
p426
I00
sS'10000'
p427
I00
sS'10001'
p428
I00
sS'0001101101001010'
p429
I00
sS'0110001100101011100101'
p430
I00
sS'100000101010'
p431
I00
sS'110100'
p432
I00
sS'0100010001010111'
p433
I00
sS'0110011110100010000010'
p434
I00
sS'1100100010101111110'
p435
I00
sS'1110111110'
p436
I00
sS'11000000'
p437
I00
sS'0011001001101001010101'
p438
I00
sS'1010001101011100101'
p439
I00
sS'100100'
p440
I00
sS'100101'
p441
I00
sS'1110101111010111111000'
p442
I00
sS'100010010100'
p443
I00
sS'1111011011010111100010'
p444
I00
sS'1111101010'
p445
I00
sS'01011000'
p446
I00
sS'0011101100011111'
p447
I00
sS'001'
p448
I00
sS'000'
p449
I00
sS'0000010'
p450
I00
sS'0000011'
p451
I00
sS'00110100110'
p452
I00
sS'100000001'
p453
I00
sS'1111100111100111'
p454
I00
sS'1011100011011'
p455
I00
sS'111111100'
p456
I00
sS'0111110110001011110100'
p457
I00
sS'1010110100'
p458
I00
sS'0111110011101000'
p459
I00
sS'1010101010101010'
p460
I01
sS'1110011001100100111101'
p461
I00
sS'01110111'
p462
I00
sS'0110011111011000100010'
p463
I00
sS'1010010101111'
p464
I00
sS'1100100001000100'
p465
I00
sS'00100001'
p466
I00
sS'00001'
p467
I00
sS'000001010'
p468
I00
sS'000011'
p469
I00
sS'000010'
p470
I00
sS'1000101'
p471
I00
sS'0010110101101101001100'
p472
I00
sS'101111111'
p473
I00
sS'1101110'
p474
I00
sS'1101111'
p475
I00
sS'01100000'
p476
I00
sS'101011110'
p477
I00
sS'0011011001100110111'
p478
I00
sS'00100000010'
p479
I00
sS'01001010001'
p480
I00
sS'1101101001'
p481
I00
sS'0111101'
p482
I00
sS'11111100'
p483
I00
sS'0110001111011000010'
p484
I00
sS'01111011000'
p485
I00
sS'1010101010'
p486
I01
sS'1101101000000011110110'
p487
I00
sS'1100111100'
p488
I00
sS'001010'
p489
I00
sS'0110010000000'
p490
I00
sS'110101001111'
p491
I00
sS'11111110000'
p492
I00
sS'11100'
p493
I00
sS'11101'
p494
I00
sS'1100000010100011010010'
p495
I00
sS'1101001010011'
p496
I00
sS'01100110011'
p497
I00
sS'011100000100'
p498
I00
sS'00001000101'
p499
I00
sS'101000'
p500
I00
sS'101001'
p501
I00
sS'1110010'
p502
I00
sS'1000111110010101'
p503
I00
sS'111'
p504
I00
sS'110'
p505
I00
sS'1111010000111110'
p506
I00
sS'1100010001'
p507
I00
sS'0100110'
p508
I00
sS'0100111'
p509
I00
sS'111010000110'
p510
I00
sS'1011100101101001'
p511
I00
sS'011111'
p512
I00
sS'0010001'
p513
I00
sS'0011001111010001010010'
p514
I00
sS'000011110011'
p515
I00
sS'1101010111101011010011'
p516
I00
sS'0100011010111'
p517
I00
sS'0110110101010110100'
p518
I00
sS'1010101'
p519
I00
sS'01100001110'
p520
I00
sS'1110000011100100010100'
p521
I00
sS'0010010100010110'
p522
I00
sS'0000110'
p523
I00
sS'1001101101101010101000'
p524
I00
sS'11011011000'
p525
I00
sS'1001111111010011001'
p526
I00
sS'1011101000110101011'
p527
I00
sS'0110001010010011'
p528
I00
sS'1101000100100001111'
p529
I00
sS'0110110000100111111'
p530
I00
sS'001011001000'
p531
I00
sS'110100010011'
p532
I00
sS'1110111010111101101'
p533
I00
sS'1110111100'
p534
I00
sS'1001010111'
p535
I00
sS'0101011000001'
p536
I00
sS'010000'
p537
I00
sS'1001111100111100101000'
p538
I00
sS'01000010111'
p539
I00
sS'0011101100100'
p540
I00
sS'10111101101'
p541
I00
sS'00101100'
p542
I00
sS'1001101101110001101001'
p543
I00
sS'0100100101000'
p544
I00
sS'0111011001'
p545
I00
sS'1010101001011'
p546
I00
sS'0101011110'
p547
I00
sS'0110001100110110010001'
p548
I00
sS'010101100101'
p549
I00
sS'011000000010'
p550
I00
sS'000111'
p551
I00
sS'01101'
p552
I00
sS'0101011010001'
p553
I00
sS'0001010110101011'
p554
I00
sS'1100101111101010'
p555
I00
sS'0110001'
p556
I00
sS'0010100110000011001101'
p557
I00
sS'0010101011110000'
p558
I00
sS'01010100'
p559
I00
sS'110001111100'
p560
I00
sS'1001001'
p561
I00
sS'1001000'
p562
I00
sS'01111111'
p563
I00
sS'0110000111000001000111'
p564
I00
sS'111001011'
p565
I00
sS'111000011'
p566
I00
sS'011101'
p567
I00
sS'011100'
p568
I00
sS'011101000010'
p569
I00
sS'0101101011101'
p570
I00
sS'001011100110'
p571
I00
sS'0101010'
p572
I00
sS'1101001001001000'
p573
I00
sS'0110000011001111101'
p574
I00
sS'1011010011111001010100'
p575
I00
sS'111010010011'
p576
I00
sS'1111010011'
p577
I00
sS'0101111000000'
p578
I00
sS'1100111110010101010010'
p579
I00
sS'01010001101'
p580
I00
sS'0011'
p581
I00
sS'0010'
p582
I00
sS'1100011100'
p583
I00
sS'01101111'
p584
I00
sS'0011100011100101110010'
p585
I00
sS'1010111000000100'
p586
I00
sS'1010001111101110'
p587
I00
sS'1101110111000'
p588
I00
sS'0100110111101110100'
p589
I00
sS'00011100111'
p590
I00
sS'1100100001000'
p591
I00
sS'011010110'
p592
I00
sS'001000011010'
p593
I00
sS'1010011111011000'
p594
I00
sS'10100100'
p595
I00
sS'0010001111111100111110'
p596
I00
sS'1110111101001011111'
p597
I00
sS'1111'
p598
I00
sS'1110'
p599
I00
sS'111100'
p600
I00
sS'111101'
p601
I00
sS'1100010010001111'
p602
I00
sS'01001000'
p603
I00
sS'1101010011001'
p604
I00
sS'001010011111'
p605
I00
sS'1111100001111110'
p606
I00
sS'1000011011110'
p607
I00
sS'0100110110100001010'
p608
I00
sS'0100110100100101110'
p609
I00
sS'10001100'
p610
I00
sS'0011100000010000011010'
p611
I00
sS'0110000001110'
p612
I00
sS'1110010010111011'
p613
I00
sS'11101010'
p614
I00
sS'01110010001'
p615
I00
sS'0101110000110'
p616
I00
sS'100111'
p617
I00
sS'100110'
p618
I00
sS'100011000'
p619
I00
sS'1011000110000'
p620
I00
sS'00000'
p621
I00
sS'1111011111000'
p622
I00
sS'1100110'
p623
I00
ss.